Archive member included because of file (symbol)

/nxtOSEK/ecrobot/../ecrobot/libecrobot.a(ecrobot_HiTechnic.o)
                              build/unit/BalancerUnit.o (ecrobot_get_gyro_sensor)
/nxtOSEK/ecrobot/../ecrobot/libecrobot.a(ecrobot_interface.o)
                              build/unit/BalancerUnit.o (ecrobot_set_motor_rev)
/nxtOSEK/ecrobot/../ecrobot/libecrobot.a(colorsensor.o)
                              /nxtOSEK/ecrobot/../ecrobot/libecrobot.a(ecrobot_interface.o) (colorsensor_init)
/nxtOSEK/ecrobot/../ecrobot/libecrobot.a(uart.oram)
                              build/config/at91sam7s-gnu/irq.oram (uart_isr_C_0)
/nxtOSEK/ecrobot/../ecrobot/libecrobot.a(systick.oram)
                              build/syslib/at91sam7s-gnu/lego_nxt/hw_sys_timer.oram (systick_low_priority_C)
/nxtOSEK/ecrobot/../ecrobot/libecrobot.a(byte_fifo.oram)
                              /nxtOSEK/ecrobot/../ecrobot/libecrobot.a(uart.oram) (byte_fifo_put)
/nxtOSEK/ecrobot/../ecrobot/libecrobot.a(aic.oram)
                              /nxtOSEK/ecrobot/../ecrobot/libecrobot.a(uart.oram) (aic_set_vector)
/nxtOSEK/ecrobot/../ecrobot/libecrobot.a(udp.oram)
                              build/config/at91sam7s-gnu/irq.oram (udp_isr_C)
/nxtOSEK/ecrobot/../ecrobot/libecrobot.a(twi.oram)
                              build/config/at91sam7s-gnu/irq.oram (twi_isr_C)
/nxtOSEK/ecrobot/../ecrobot/libecrobot.a(nxt_spi.oram)
                              build/config/at91sam7s-gnu/irq.oram (spi_isr_C)
/nxtOSEK/ecrobot/../ecrobot/libecrobot.a(nxt_motors.oram)
                              build/unit/BalancerUnit.o (nxt_motor_get_count)
/nxtOSEK/ecrobot/../ecrobot/libecrobot.a(data_abort.oram)
                              build/ecrobot_init.o (data_abort_C)
/nxtOSEK/ecrobot/../ecrobot/libecrobot.a(display.oram)
                              build/ecrobot_base.o (display_update)
/nxtOSEK/ecrobot/../ecrobot/libecrobot.a(i2c.oram)
                              build/config/at91sam7s-gnu/irq.oram (i2c_timer_isr_C)
/nxtOSEK/ecrobot/../ecrobot/libecrobot.a(sound.oram)
                              /nxtOSEK/ecrobot/../ecrobot/libecrobot.a(ecrobot_interface.o) (sound_get_time)
/nxtOSEK/ecrobot/../ecrobot/libecrobot.a(bt.oram)
                              build/ecrobot_bluetooth.o (bt_send)
/nxtOSEK/ecrobot/../ecrobot/libecrobot.a(nxt_avr.oram)
                              build/ecrobot_base.o (nxt_avr_power_down)
/nxtOSEK/ecrobot/../ecrobot/libecrobot.a(sensors.oram)
                              /nxtOSEK/ecrobot/../ecrobot/libecrobot.a(ecrobot_interface.o) (unset_digi0)
/nxtOSEK/ecrobot/../ecrobot/libecrobot.a(sensors1.oram)
                              /nxtOSEK/ecrobot/../ecrobot/libecrobot.a(colorsensor.o) (sensor_pins)
/nxtOSEK/ecrobot/../ecrobot/libecrobot.a(nxt_lcd.oram)
                              /nxtOSEK/ecrobot/../ecrobot/libecrobot.a(display.oram) (nxt_lcd_force_update)
/nxtOSEK/ecrobot/../ecrobot/libecrobot.a(flash_loader.oram)
                              build/ecrobot_base.o (set_flash_request)
/nxtOSEK/ecrobot/../ecrobot/libecrobot.a(interrupts.oram)
                              /nxtOSEK/ecrobot/../ecrobot/libecrobot.a(uart.oram) (interrupts_get_and_disable)
/nxtOSEK/ecrobot/../ecrobot/libecrobot.a(nxtosek_splash.obmp)
                              build/ecrobot_base.o (nxtosek_splash_bmp_start)
/nxtOSEK/ecrobot/../ecrobot/libecrobot.a(ecrobot_usb.o)
                              /nxtOSEK/ecrobot/../ecrobot/libecrobot.a(flash_loader.oram) (ecrobot_init_usb)
/nxtOSEK/ecrobot/../ecrobot/libecrobot.a(flashprog.oram)
                              /nxtOSEK/ecrobot/../ecrobot/libecrobot.a(flash_loader.oram) (flash_write_page)
/nxtOSEK/ecrobot/../ecrobot/libnxtway_gs_balancer.a(balancer.o)
                              build/unit/BalancerUnit.o (balance_control)
/cygdrive/C/cygwin/GNUARM/bin/../lib/gcc/arm-elf/4.0.2/thumb/interwork/libgcc.a(_udivsi3.o)
                              build/ecrobot_base.o (__udivsi3)
/cygdrive/C/cygwin/GNUARM/bin/../lib/gcc/arm-elf/4.0.2/thumb/interwork/libgcc.a(_divsi3.o)
                              build/unit/TimerUnit.o (__divsi3)
/cygdrive/C/cygwin/GNUARM/bin/../lib/gcc/arm-elf/4.0.2/thumb/interwork/libgcc.a(_umodsi3.o)
                              /nxtOSEK/ecrobot/../ecrobot/libecrobot.a(display.oram) (__umodsi3)
/cygdrive/C/cygwin/GNUARM/bin/../lib/gcc/arm-elf/4.0.2/thumb/interwork/libgcc.a(_modsi3.o)
                              /nxtOSEK/ecrobot/../ecrobot/libecrobot.a(sound.oram) (__modsi3)
/cygdrive/C/cygwin/GNUARM/bin/../lib/gcc/arm-elf/4.0.2/thumb/interwork/libgcc.a(_dvmd_tls.o)
                              /cygdrive/C/cygwin/GNUARM/bin/../lib/gcc/arm-elf/4.0.2/thumb/interwork/libgcc.a(_udivsi3.o) (__div0)
/cygdrive/C/cygwin/GNUARM/bin/../lib/gcc/arm-elf/4.0.2/thumb/interwork/libgcc.a(_addsubdf3.o)
                              /nxtOSEK/ecrobot/../ecrobot/libecrobot.a(colorsensor.o) (__floatsidf)
/cygdrive/C/cygwin/GNUARM/bin/../lib/gcc/arm-elf/4.0.2/thumb/interwork/libgcc.a(_muldivdf3.o)
                              /nxtOSEK/ecrobot/../ecrobot/libecrobot.a(colorsensor.o) (__muldf3)
/cygdrive/C/cygwin/GNUARM/bin/../lib/gcc/arm-elf/4.0.2/thumb/interwork/libgcc.a(_cmpdf2.o)
                              /nxtOSEK/ecrobot/../ecrobot/libecrobot.a(colorsensor.o) (__gtdf2)
/cygdrive/C/cygwin/GNUARM/bin/../lib/gcc/arm-elf/4.0.2/thumb/interwork/libgcc.a(_addsubsf3.o)
                              build/unit/BalancerUnit.o (__subsf3)
/cygdrive/C/cygwin/GNUARM/bin/../lib/gcc/arm-elf/4.0.2/thumb/interwork/libgcc.a(_muldivsf3.o)
                              build/controller/RunActions.o (__mulsf3)
/cygdrive/C/cygwin/GNUARM/bin/../lib/gcc/arm-elf/4.0.2/thumb/interwork/libgcc.a(_cmpsf2.o)
                              build/controller/RunActions.o (__gtsf2)
/cygdrive/C/cygwin/GNUARM/bin/../lib/gcc/arm-elf/4.0.2/thumb/interwork/libgcc.a(_fixsfsi.o)
                              build/controller/RunActions.o (__fixsfsi)
/cygdrive/C/cygwin/GNUARM/bin/../lib/gcc/arm-elf/4.0.2/thumb/interwork/libgcc.a(_muldi3.o)
                              /nxtOSEK/ecrobot/../ecrobot/libecrobot.a(sound.oram) (__muldi3)
/cygdrive/C/cygwin/GNUARM/bin/../lib/gcc/arm-elf/4.0.2/thumb/interwork/libgcc.a(_divdi3.o)
                              /nxtOSEK/ecrobot/../ecrobot/libecrobot.a(sound.oram) (__divdi3)
/cygdrive/C/cygwin/GNUARM/bin/../lib/gcc/arm-elf/4.0.2/thumb/interwork/libgcc.a(_clz.o)
                              /cygdrive/C/cygwin/GNUARM/bin/../lib/gcc/arm-elf/4.0.2/thumb/interwork/libgcc.a(_divdi3.o) (__clz_tab)
/cygdrive/C/cygwin/GNUARM/bin/../lib/gcc/arm-elf/4.0.2/../../../../arm-elf/lib/thumb/interwork/libc.a(memcpy.o)
                              /nxtOSEK/ecrobot/../ecrobot/libecrobot.a(udp.oram) (memcpy)
/cygdrive/C/cygwin/GNUARM/bin/../lib/gcc/arm-elf/4.0.2/../../../../arm-elf/lib/thumb/interwork/libc.a(memset.o)
                              build/ecrobot_bluetooth.o (memset)
/cygdrive/C/cygwin/GNUARM/bin/../lib/gcc/arm-elf/4.0.2/../../../../arm-elf/lib/thumb/interwork/libc.a(strcmp.o)
                              /nxtOSEK/ecrobot/../ecrobot/libecrobot.a(flash_loader.oram) (strcmp)
/cygdrive/C/cygwin/GNUARM/bin/../lib/gcc/arm-elf/4.0.2/../../../../arm-elf/lib/thumb/interwork/libc.a(strcpy.o)
                              build/ecrobot_base.o (strcpy)
/cygdrive/C/cygwin/GNUARM/bin/../lib/gcc/arm-elf/4.0.2/../../../../arm-elf/lib/thumb/interwork/libc.a(strlen.o)
                              build/ecrobot_base.o (strlen)
/cygdrive/C/cygwin/GNUARM/bin/../lib/gcc/arm-elf/4.0.2/../../../../arm-elf/lib/thumb/interwork/libc.a(strncpy.o)
                              build/ecrobot_bluetooth.o (strncpy)

Allocating common symbols
Common symbol       size              file

tcb_waievt          0x4               build/./kernel_cfg.o
rescb_prevpri       0x1               build/./kernel_cfg.o
almcb_prev          0x4               build/./kernel_cfg.o
callevel            0x1               build/kernel/osctl.o
runtsk              0x1               build/kernel/task.o
tcb_lastres         0x3               build/./kernel_cfg.o
runisr              0x1               build/kernel/interrupt.o
almcb_almval        0x10              build/./kernel_cfg.o
display_x           0x4               /nxtOSEK/ecrobot/../ecrobot/libecrobot.a(display.oram)
_errorhook_svcid    0x1               build/kernel/osctl.o
tcxb_pc             0xc               build/./kernel_cfg.o
appmode             0x1               build/kernel/osctl.o
_errorhook_par1     0x4               build/kernel/osctl.o
schedtsk            0x1               build/kernel/task.o
tcb_next            0x3               build/./kernel_cfg.o
tcb_curpri          0x3               build/./kernel_cfg.o
tcb_tstat           0x3               build/./kernel_cfg.o
digits              0x4               build/controller/initDevice.o
data_abort_pc       0x4               /nxtOSEK/ecrobot/../ecrobot/libecrobot.a(data_abort.oram)
nextpri             0x1               build/kernel/task.o
isrcb_lastres       0x1               build/./kernel_cfg.o
cntcb_almque        0x1               build/./kernel_cfg.o
rescb_prevres       0x1               build/./kernel_cfg.o
tcb_actcnt          0x3               build/./kernel_cfg.o
_errorhook_par3     0x4               build/kernel/osctl.o
tcb_curevt          0x4               build/./kernel_cfg.o
display_y           0x4               /nxtOSEK/ecrobot/../ecrobot/libecrobot.a(display.oram)
sus_all_cnt         0x1               build/kernel/interrupt.o
almcb_cycle         0x10              build/./kernel_cfg.o
tcxb_sp             0xc               build/./kernel_cfg.o
uart                0x44              /nxtOSEK/ecrobot/../ecrobot/libecrobot.a(uart.oram)
sample              0x31c             /nxtOSEK/ecrobot/../ecrobot/libecrobot.a(sound.oram)
almcb_next          0x4               build/./kernel_cfg.o
_errorhook_par2     0x4               build/kernel/osctl.o
cntcb_curval        0x4               build/./kernel_cfg.o

Memory Configuration

Name             Origin             Length             Attributes
rom              0x00108000         0x00038000
vector_ram       0x00200000         0x00000040
ram              0x00200040         0x0000ffc0
*default*        0x00000000         0xffffffff

Linker script and memory map

LOAD build/kernel/alarm.o
LOAD build/kernel/event.o
LOAD build/kernel/interrupt.o
LOAD build/kernel/osctl.o
LOAD build/kernel/resource.o
LOAD build/kernel/task.o
LOAD build/kernel/task_manage.o
LOAD build/config/at91sam7s-gnu/cpu_config.o
LOAD build/config/at91sam7s-gnu/lego_nxt/sys_config.o
LOAD build/./kernel_cfg.o
LOAD build/syscalls.o
LOAD build/ecrobot_bluetooth.o
LOAD build/ecrobot_base.o
LOAD build/ecrobot.o
LOAD build/com/balancer_param.o
LOAD build/controller/Runner.o
LOAD build/controller/Monitor.o
LOAD build/controller/RunActions.o
LOAD build/controller/CalibrateActions.o
LOAD build/unit/BumperUnit.o
LOAD build/unit/LineMonitorUnit.o
LOAD build/unit/DisplayUnit.o
LOAD build/unit/HornUnit.o
LOAD build/unit/TimerUnit.o
LOAD build/unit/CommunicationUnit.o
LOAD build/unit/BalancerUnit.o
LOAD build/unit/BlockMonitorUnit.o
LOAD build/controller/initDevice.o
LOAD build/syslib/at91sam7s-gnu/lego_nxt/hw_sys_timer.oram
LOAD build/nxtvm/platform/nxt/vectors.o
LOAD build/config/at91sam7s-gnu/debug.o
LOAD build/config/at91sam7s-gnu/lego_nxt/sys_support.o
LOAD build/nxt_binary_header.o
LOAD build/nxt_entry_point.o
LOAD build/ecrobot_init.o
LOAD build/config/at91sam7s-gnu/cpu_support.oram
LOAD build/config/at91sam7s-gnu/irq.oram
LOAD /nxtOSEK/ecrobot/../c++/liblejososek.a
LOAD /nxtOSEK/ecrobot/../ecrobot/libecrobot.a
LOAD /nxtOSEK/ecrobot/../ecrobot/libnxtway_gs_balancer.a
LOAD /cygdrive/C/cygwin/GNUARM/bin/../lib/gcc/arm-elf/4.0.2/../../../../arm-elf/lib/thumb/interwork/libstdc++.a
LOAD /cygdrive/C/cygwin/GNUARM/bin/../lib/gcc/arm-elf/4.0.2/../../../../arm-elf/lib/thumb/interwork/libm.a
LOAD /cygdrive/C/cygwin/GNUARM/bin/../lib/gcc/arm-elf/4.0.2/thumb/interwork/libgcc.a
LOAD /cygdrive/C/cygwin/GNUARM/bin/../lib/gcc/arm-elf/4.0.2/../../../../arm-elf/lib/thumb/interwork/libc.a
LOAD /cygdrive/C/cygwin/GNUARM/bin/../lib/gcc/arm-elf/4.0.2/thumb/interwork/libgcc.a
                0x00108000                ROM_BASE = 0x108000
                0x00038000                ROM_SIZE = 0x38000
                0x00200000                RAM_BASE = 0x200000
                0x00010000                RAM_SIZE = 0x10000

.vectors        0x00200000       0x40 load address 0x00108000
 vectors.o(*.text *.text.*)
 .text          0x00200000       0x38 build/nxtvm/platform/nxt/vectors.o
                0x00200040                . = ALIGN (0x10)
 *fill*         0x00200038        0x8 00
                0x00200000                __vectors_ram_start__ = ADDR (.vectors)
                0x00200040                __vectors_ram_end__ = (ADDR (.vectors) + SIZEOF (.vectors))
                0x00108000                __vectors_load_start__ = LOADADDR (.vectors)
                0x00108040                __vectors_load_end__ = (LOADADDR (.vectors) + SIZEOF (.vectors))

.init           0x00108040      0x280
 *ecrobot_init.o(*.text *.text.*)
 .text          0x00108040      0x280 build/ecrobot_init.o
                0x001081ac                undef_handler
                0x001081b4                prefetch_abort_handler
                0x001081b8                data_abort_handler
                0x001081b0                swi_handler
                0x00108040                start
                0x001081d4                reserved_handler
                0x001082c0                . = ALIGN (0x10)

.ram_text       0x00200040     0x3590 load address 0x001082c0
                0x00200040                . = ALIGN (0x10)
 *.oram(*.text *.text.* *.glue*)
 .text.systick_isr_C1
                0x00200040       0x28 build/syslib/at91sam7s-gnu/lego_nxt/hw_sys_timer.oram
                0x00200040                systick_isr_C1
 *fill*         0x00200068        0x8 00
 .text          0x00200070      0x230 build/config/at91sam7s-gnu/cpu_support.oram
                0x00200250                enable_int
                0x002000f0                start_dispatch
                0x002000b0                activate_r
                0x00200248                disable_int
                0x00200070                dispatch
                0x0020021c                int_return
                0x002001ac                _interrupt
                0x002000e0                exit_and_dispatch
                0x00200258                nop
 .text          0x002002a0      0x2c0 build/config/at91sam7s-gnu/irq.oram
                0x002002a0                default_isr
                0x0020042c                uart_isr_entry_0
                0x002003ac                twi_isr_entry
                0x0020046c                uart_isr_entry_1
                0x0020036c                spi_isr_entry
                0x002002ec                systick_low_priority_entry
                0x002004ac                nxt_motor_isr_entry
                0x002004ec                i2c_timer_isr_entry
                0x002002a0                default_fiq
                0x002002a4                systick_isr_entry
                0x002002a0                spurious_isr
                0x002003ec                sound_isr_entry
                0x0020032c                udp_isr_entry
 .text.uart_process_isr
                0x00200560       0x88 /nxtOSEK/ecrobot/../ecrobot/libecrobot.a(uart.oram)
 .text.uart_isr_C_0
                0x002005e8        0xc /nxtOSEK/ecrobot/../ecrobot/libecrobot.a(uart.oram)
                0x002005e8                uart_isr_C_0
 .text.uart_isr_C_1
                0x002005f4        0xc /nxtOSEK/ecrobot/../ecrobot/libecrobot.a(uart.oram)
                0x002005f4                uart_isr_C_1
 .text.systick_low_priority_C
                0x00200600       0x1c /nxtOSEK/ecrobot/../ecrobot/libecrobot.a(systick.oram)
                0x00200600                systick_low_priority_C
 .text.systick_isr_C
                0x0020061c       0x24 /nxtOSEK/ecrobot/../ecrobot/libecrobot.a(systick.oram)
                0x0020061c                systick_isr_C
 .text.systick_get_ms
                0x00200640        0xc /nxtOSEK/ecrobot/../ecrobot/libecrobot.a(systick.oram)
                0x00200640                systick_get_ms
 .text.systick_wait_ms
                0x0020064c       0x1c /nxtOSEK/ecrobot/../ecrobot/libecrobot.a(systick.oram)
                0x0020064c                systick_wait_ms
 .text.systick_wait_ns
                0x00200668       0x1c /nxtOSEK/ecrobot/../ecrobot/libecrobot.a(systick.oram)
                0x00200668                systick_wait_ns
 .text.systick_init
                0x00200684       0x58 /nxtOSEK/ecrobot/../ecrobot/libecrobot.a(systick.oram)
                0x00200684                systick_init
 .text.systick_suspend
                0x002006dc        0xc /nxtOSEK/ecrobot/../ecrobot/libecrobot.a(systick.oram)
                0x002006dc                systick_suspend
 .text.systick_resume
                0x002006e8        0xc /nxtOSEK/ecrobot/../ecrobot/libecrobot.a(systick.oram)
                0x002006e8                systick_resume
 .text.byte_fifo_put
                0x002006f4       0x58 /nxtOSEK/ecrobot/../ecrobot/libecrobot.a(byte_fifo.oram)
                0x002006f4                byte_fifo_put
 .text.byte_fifo_get
                0x0020074c       0x2c /nxtOSEK/ecrobot/../ecrobot/libecrobot.a(byte_fifo.oram)
                0x0020074c                byte_fifo_get
 .text.aic_initialise
                0x00200778       0x5c /nxtOSEK/ecrobot/../ecrobot/libecrobot.a(aic.oram)
                0x00200778                aic_initialise
 .text.aic_set_vector
                0x002007d4       0x30 /nxtOSEK/ecrobot/../ecrobot/libecrobot.a(aic.oram)
                0x002007d4                aic_set_vector
 .text.aic_mask_on
                0x00200804       0x24 /nxtOSEK/ecrobot/../ecrobot/libecrobot.a(aic.oram)
                0x00200804                aic_mask_on
 .text.aic_mask_off
                0x00200828       0x24 /nxtOSEK/ecrobot/../ecrobot/libecrobot.a(aic.oram)
                0x00200828                aic_mask_off
 .text.aic_clear
                0x0020084c       0x24 /nxtOSEK/ecrobot/../ecrobot/libecrobot.a(aic.oram)
                0x0020084c                aic_clear
 .text.reset    0x00200870       0x4c /nxtOSEK/ecrobot/../ecrobot/libecrobot.a(udp.oram)
 .text.udp_send_null
                0x002008bc       0x2c /nxtOSEK/ecrobot/../ecrobot/libecrobot.a(udp.oram)
 .text.udp_send_stall
                0x002008e8       0x2c /nxtOSEK/ecrobot/../ecrobot/libecrobot.a(udp.oram)
 .text.udp_send_control
                0x00200914       0x60 /nxtOSEK/ecrobot/../ecrobot/libecrobot.a(udp.oram)
 .text.udp_isr_C
                0x00200974      0x7d0 /nxtOSEK/ecrobot/../ecrobot/libecrobot.a(udp.oram)
                0x00200974                udp_isr_C
 .text.twi_status
                0x00201144       0x20 /nxtOSEK/ecrobot/../ecrobot/libecrobot.a(twi.oram)
                0x00201144                twi_status
 .text.twi_isr_C
                0x00201164       0xc4 /nxtOSEK/ecrobot/../ecrobot/libecrobot.a(twi.oram)
                0x00201164                twi_isr_C
 .text.twi_reset
                0x00201228       0xb4 /nxtOSEK/ecrobot/../ecrobot/libecrobot.a(twi.oram)
                0x00201228                twi_reset
 .text.twi_init
                0x002012dc       0x4c /nxtOSEK/ecrobot/../ecrobot/libecrobot.a(twi.oram)
                0x002012dc                twi_init
 .text.twi_start_read
                0x00201328       0x60 /nxtOSEK/ecrobot/../ecrobot/libecrobot.a(twi.oram)
                0x00201328                twi_start_read
 .text.twi_start_write
                0x00201388       0x64 /nxtOSEK/ecrobot/../ecrobot/libecrobot.a(twi.oram)
                0x00201388                twi_start_write
 .text.spi_set_mode
                0x002013ec       0x40 /nxtOSEK/ecrobot/../ecrobot/libecrobot.a(nxt_spi.oram)
 .text.spi_isr_C
                0x0020142c       0x8c /nxtOSEK/ecrobot/../ecrobot/libecrobot.a(nxt_spi.oram)
                0x0020142c                spi_isr_C
 .text.nxt_spi_init
                0x002014b8      0x12c /nxtOSEK/ecrobot/../ecrobot/libecrobot.a(nxt_spi.oram)
                0x002014b8                nxt_spi_init
 .text.nxt_spi_write
                0x002015e4       0x44 /nxtOSEK/ecrobot/../ecrobot/libecrobot.a(nxt_spi.oram)
                0x002015e4                nxt_spi_write
 .text.nxt_spi_set_display
                0x00201628       0x10 /nxtOSEK/ecrobot/../ecrobot/libecrobot.a(nxt_spi.oram)
                0x00201628                nxt_spi_set_display
 .text.nxt_spi_refresh
                0x00201638       0x24 /nxtOSEK/ecrobot/../ecrobot/libecrobot.a(nxt_spi.oram)
                0x00201638                nxt_spi_refresh
 .text.nxt_motor_get_count
                0x0020165c       0x14 /nxtOSEK/ecrobot/../ecrobot/libecrobot.a(nxt_motors.oram)
                0x0020165c                nxt_motor_get_count
 .text.nxt_motor_set_count
                0x00201670       0x10 /nxtOSEK/ecrobot/../ecrobot/libecrobot.a(nxt_motors.oram)
                0x00201670                nxt_motor_set_count
 .text.nxt_motor_set_speed
                0x00201680       0x34 /nxtOSEK/ecrobot/../ecrobot/libecrobot.a(nxt_motors.oram)
                0x00201680                nxt_motor_set_speed
 .text.nxt_motor_1kHz_process
                0x002016b4       0x28 /nxtOSEK/ecrobot/../ecrobot/libecrobot.a(nxt_motors.oram)
                0x002016b4                nxt_motor_1kHz_process
 .text.nxt_motor_quad_decode
                0x002016dc       0x30 /nxtOSEK/ecrobot/../ecrobot/libecrobot.a(nxt_motors.oram)
                0x002016dc                nxt_motor_quad_decode
 .text.nxt_motor_isr_C
                0x0020170c       0x88 /nxtOSEK/ecrobot/../ecrobot/libecrobot.a(nxt_motors.oram)
                0x0020170c                nxt_motor_isr_C
 .text.nxt_motor_init
                0x00201794       0x68 /nxtOSEK/ecrobot/../ecrobot/libecrobot.a(nxt_motors.oram)
                0x00201794                nxt_motor_init
 .text.data_abort_C
                0x002017fc       0x7c /nxtOSEK/ecrobot/../ecrobot/libecrobot.a(data_abort.oram)
                0x002017fc                data_abort_C
 .text.display_update
                0x00201878       0x14 /nxtOSEK/ecrobot/../ecrobot/libecrobot.a(display.oram)
                0x00201878                display_update
 .text.display_force_update
                0x0020188c        0xc /nxtOSEK/ecrobot/../ecrobot/libecrobot.a(display.oram)
                0x0020188c                display_force_update
 .text.display_clear
                0x00201898       0x24 /nxtOSEK/ecrobot/../ecrobot/libecrobot.a(display.oram)
                0x00201898                display_clear
 .text.display_goto_xy
                0x002018bc       0x14 /nxtOSEK/ecrobot/../ecrobot/libecrobot.a(display.oram)
                0x002018bc                display_goto_xy
 .text.display_char
                0x002018d0       0x60 /nxtOSEK/ecrobot/../ecrobot/libecrobot.a(display.oram)
                0x002018d0                display_char
 .text.display_string
                0x00201930       0x3c /nxtOSEK/ecrobot/../ecrobot/libecrobot.a(display.oram)
                0x00201930                display_string
 .text.display_hex
                0x0020196c       0x50 /nxtOSEK/ecrobot/../ecrobot/libecrobot.a(display.oram)
                0x0020196c                display_hex
 .text.display_unsigned_worker
                0x002019bc       0x70 /nxtOSEK/ecrobot/../ecrobot/libecrobot.a(display.oram)
 .text.display_unsigned
                0x00201a2c        0xc /nxtOSEK/ecrobot/../ecrobot/libecrobot.a(display.oram)
                0x00201a2c                display_unsigned
 .text.display_bitmap_copy
                0x00201a38       0x5c /nxtOSEK/ecrobot/../ecrobot/libecrobot.a(display.oram)
                0x00201a38                display_bitmap_copy
 .text.display_init
                0x00201a94       0x50 /nxtOSEK/ecrobot/../ecrobot/libecrobot.a(display.oram)
                0x00201a94                display_init
 .text.i2c_timer_isr_C
                0x00201ae4      0x314 /nxtOSEK/ecrobot/../ecrobot/libecrobot.a(i2c.oram)
                0x00201ae4                i2c_timer_isr_C
 .text.i2c_disable
                0x00201df8       0x20 /nxtOSEK/ecrobot/../ecrobot/libecrobot.a(i2c.oram)
                0x00201df8                i2c_disable
 .text.i2c_init
                0x00201e18       0xa4 /nxtOSEK/ecrobot/../ecrobot/libecrobot.a(i2c.oram)
                0x00201e18                i2c_init
 .text.set_vol  0x00201ebc       0xa4 /nxtOSEK/ecrobot/../ecrobot/libecrobot.a(sound.oram)
 .text.sound_fill_sample_buffer
                0x00201f60       0xe4 /nxtOSEK/ecrobot/../ecrobot/libecrobot.a(sound.oram)
                0x00201f60                sound_fill_sample_buffer
 .text.sound_freq_vol
                0x00202044      0x1e4 /nxtOSEK/ecrobot/../ecrobot/libecrobot.a(sound.oram)
                0x00202044                sound_freq_vol
 .text.sound_init
                0x00202228       0xa0 /nxtOSEK/ecrobot/../ecrobot/libecrobot.a(sound.oram)
                0x00202228                sound_init
 .text.sound_isr_C
                0x002022c8      0x144 /nxtOSEK/ecrobot/../ecrobot/libecrobot.a(sound.oram)
                0x002022c8                sound_isr_C
 .text.bt_init  0x0020240c      0x1c0 /nxtOSEK/ecrobot/../ecrobot/libecrobot.a(bt.oram)
                0x0020240c                bt_init
 .text.bt_send  0x002025cc       0x5c /nxtOSEK/ecrobot/../ecrobot/libecrobot.a(bt.oram)
                0x002025cc                bt_send
 .text.bt_write
                0x00202628       0x70 /nxtOSEK/ecrobot/../ecrobot/libecrobot.a(bt.oram)
                0x00202628                bt_write
 .text.bt_pending
                0x00202698       0x50 /nxtOSEK/ecrobot/../ecrobot/libecrobot.a(bt.oram)
                0x00202698                bt_pending
 .text.bt_clear_arm7_cmd
                0x002026e8       0x10 /nxtOSEK/ecrobot/../ecrobot/libecrobot.a(bt.oram)
                0x002026e8                bt_clear_arm7_cmd
 .text.bt_set_arm7_cmd
                0x002026f8       0x10 /nxtOSEK/ecrobot/../ecrobot/libecrobot.a(bt.oram)
                0x002026f8                bt_set_arm7_cmd
 .text.bt_receive
                0x00202708      0x160 /nxtOSEK/ecrobot/../ecrobot/libecrobot.a(bt.oram)
                0x00202708                bt_receive
 .text.bt_reset
                0x00202868       0x84 /nxtOSEK/ecrobot/../ecrobot/libecrobot.a(bt.oram)
                0x00202868                bt_reset
 .text.nxt_avr_power_down
                0x002028ec       0x10 /nxtOSEK/ecrobot/../ecrobot/libecrobot.a(nxt_avr.oram)
                0x002028ec                nxt_avr_power_down
 .text.nxt_avr_link_init
                0x002028fc       0x20 /nxtOSEK/ecrobot/../ecrobot/libecrobot.a(nxt_avr.oram)
                0x002028fc                nxt_avr_link_init
 .text.nxt_avr_init
                0x0020291c       0x6c /nxtOSEK/ecrobot/../ecrobot/libecrobot.a(nxt_avr.oram)
                0x0020291c                nxt_avr_init
 .text.nxt_avr_1kHz_update
                0x00202988      0x1cc /nxtOSEK/ecrobot/../ecrobot/libecrobot.a(nxt_avr.oram)
                0x00202988                nxt_avr_1kHz_update
 .text.buttons_get
                0x00202b54        0xc /nxtOSEK/ecrobot/../ecrobot/libecrobot.a(nxt_avr.oram)
                0x00202b54                buttons_get
 .text.battery_voltage
                0x00202b60       0x28 /nxtOSEK/ecrobot/../ecrobot/libecrobot.a(nxt_avr.oram)
                0x00202b60                battery_voltage
 .text.sensor_adc
                0x00202b88       0x20 /nxtOSEK/ecrobot/../ecrobot/libecrobot.a(nxt_avr.oram)
                0x00202b88                sensor_adc
 .text.nxt_avr_set_motor
                0x00202ba8       0x34 /nxtOSEK/ecrobot/../ecrobot/libecrobot.a(nxt_avr.oram)
                0x00202ba8                nxt_avr_set_motor
 .text.nxt_avr_set_input_power
                0x00202bdc       0x3c /nxtOSEK/ecrobot/../ecrobot/libecrobot.a(nxt_avr.oram)
                0x00202bdc                nxt_avr_set_input_power
 .text.unset_digi0
                0x00202c18       0x44 /nxtOSEK/ecrobot/../ecrobot/libecrobot.a(sensors.oram)
                0x00202c18                unset_digi0
 .text.unset_digi1
                0x00202c5c       0x44 /nxtOSEK/ecrobot/../ecrobot/libecrobot.a(sensors.oram)
                0x00202c5c                unset_digi1
 .text.init_sensors
                0x00202ca0       0x4c /nxtOSEK/ecrobot/../ecrobot/libecrobot.a(sensors.oram)
                0x00202ca0                init_sensors
 .text.set_digi0
                0x00202cec       0x44 /nxtOSEK/ecrobot/../ecrobot/libecrobot.a(sensors.oram)
                0x00202cec                set_digi0
 .text.nxt_lcd_command
                0x00202d30       0x18 /nxtOSEK/ecrobot/../ecrobot/libecrobot.a(nxt_lcd.oram)
                0x00202d30                nxt_lcd_command
 .text.nxt_lcd_set_col
                0x00202d48       0x24 /nxtOSEK/ecrobot/../ecrobot/libecrobot.a(nxt_lcd.oram)
                0x00202d48                nxt_lcd_set_col
 .text.nxt_lcd_set_multiplex_rate
                0x00202d6c       0x18 /nxtOSEK/ecrobot/../ecrobot/libecrobot.a(nxt_lcd.oram)
                0x00202d6c                nxt_lcd_set_multiplex_rate
 .text.nxt_lcd_set_page_address
                0x00202d84       0x18 /nxtOSEK/ecrobot/../ecrobot/libecrobot.a(nxt_lcd.oram)
                0x00202d84                nxt_lcd_set_page_address
 .text.nxt_lcd_set_pot
                0x00202d9c       0x1c /nxtOSEK/ecrobot/../ecrobot/libecrobot.a(nxt_lcd.oram)
                0x00202d9c                nxt_lcd_set_pot
 .text.nxt_lcd_set_ram_address_control
                0x00202db8       0x18 /nxtOSEK/ecrobot/../ecrobot/libecrobot.a(nxt_lcd.oram)
                0x00202db8                nxt_lcd_set_ram_address_control
 .text.nxt_lcd_enable
                0x00202dd0       0x14 /nxtOSEK/ecrobot/../ecrobot/libecrobot.a(nxt_lcd.oram)
                0x00202dd0                nxt_lcd_enable
 .text.nxt_lcd_set_map_control
                0x00202de4       0x18 /nxtOSEK/ecrobot/../ecrobot/libecrobot.a(nxt_lcd.oram)
                0x00202de4                nxt_lcd_set_map_control
 .text.nxt_lcd_reset
                0x00202dfc        0xc /nxtOSEK/ecrobot/../ecrobot/libecrobot.a(nxt_lcd.oram)
                0x00202dfc                nxt_lcd_reset
 .text.nxt_lcd_set_bias_ratio
                0x00202e08       0x18 /nxtOSEK/ecrobot/../ecrobot/libecrobot.a(nxt_lcd.oram)
                0x00202e08                nxt_lcd_set_bias_ratio
 .text.nxt_lcd_force_update
                0x00202e20       0x30 /nxtOSEK/ecrobot/../ecrobot/libecrobot.a(nxt_lcd.oram)
                0x00202e20                nxt_lcd_force_update
 .text.nxt_lcd_update
                0x00202e50        0xc /nxtOSEK/ecrobot/../ecrobot/libecrobot.a(nxt_lcd.oram)
                0x00202e50                nxt_lcd_update
 .text.nxt_lcd_power_up
                0x00202e5c       0x48 /nxtOSEK/ecrobot/../ecrobot/libecrobot.a(nxt_lcd.oram)
                0x00202e5c                nxt_lcd_power_up
 .text.nxt_lcd_power_down
                0x00202ea4        0xc /nxtOSEK/ecrobot/../ecrobot/libecrobot.a(nxt_lcd.oram)
                0x00202ea4                nxt_lcd_power_down
 .text.nxt_lcd_init
                0x00202eb0       0x18 /nxtOSEK/ecrobot/../ecrobot/libecrobot.a(nxt_lcd.oram)
                0x00202eb0                nxt_lcd_init
 .text.verify_flash_page
                0x00202ec8       0x34 /nxtOSEK/ecrobot/../ecrobot/libecrobot.a(flash_loader.oram)
 .text.set_flash_request
                0x00202efc       0x38 /nxtOSEK/ecrobot/../ecrobot/libecrobot.a(flash_loader.oram)
                0x00202efc                set_flash_request
 .text.nxt_device_init
                0x00202f34       0x38 /nxtOSEK/ecrobot/../ecrobot/libecrobot.a(flash_loader.oram)
                0x00202f34                nxt_device_init
 .text          0x00202f6c       0x68 /nxtOSEK/ecrobot/../ecrobot/libecrobot.a(interrupts.oram)
                0x00202fc4                fiq_enable
                0x00202f6c                interrupts_get_and_disable
                0x00202fa0                fiq_get_and_disable
                0x00202f90                interrupts_enable
 .text.flash_write_page
                0x00202fd4       0xc0 /nxtOSEK/ecrobot/../ecrobot/libecrobot.a(flashprog.oram)
                0x00202fd4                flash_write_page
                0x002030a0                . = ALIGN (0x10)
 *fill*         0x00203094        0xc 00
 *.oram(*.rodata *.rodata.*)
 .rodata.ld     0x002030a0        0x4 /nxtOSEK/ecrobot/../ecrobot/libecrobot.a(udp.oram)
 .rodata.cfd    0x002030a4       0x20 /nxtOSEK/ecrobot/../ecrobot/libecrobot.a(udp.oram)
 .rodata.dd     0x002030c4       0x12 /nxtOSEK/ecrobot/../ecrobot/libecrobot.a(udp.oram)
 *fill*         0x002030d6        0x2 00
 .rodata.str1.4
                0x002030d8       0x22 /nxtOSEK/ecrobot/../ecrobot/libecrobot.a(data_abort.oram)
                                 0x24 (size before relaxing)
 .rodata.font   0x002030fa      0x280 /nxtOSEK/ecrobot/../ecrobot/libecrobot.a(display.oram)
 *fill*         0x0020337a        0x2 00
 .rodata.str1.4
                0x0020337c       0x76 /nxtOSEK/ecrobot/../ecrobot/libecrobot.a(display.oram)
                                 0x78 (size before relaxing)
 *fill*         0x002033f2        0x2 00
 .rodata.i2c_pin
                0x002033f4       0x20 /nxtOSEK/ecrobot/../ecrobot/libecrobot.a(i2c.oram)
 .rodata.i2c_timer_isr_C
                0x00203414       0x38 /nxtOSEK/ecrobot/../ecrobot/libecrobot.a(i2c.oram)
 .rodata.logvol
                0x0020344c        0xc /nxtOSEK/ecrobot/../ecrobot/libecrobot.a(sound.oram)
                0x0020344c                logvol
 .rodata.silence
                0x00203458       0x40 /nxtOSEK/ecrobot/../ecrobot/libecrobot.a(sound.oram)
                0x00203458                silence
 .rodata.sine   0x00203498       0x10 /nxtOSEK/ecrobot/../ecrobot/libecrobot.a(sound.oram)
                0x00203498                sine
 .rodata.sample_pattern
                0x002034a8       0x84 /nxtOSEK/ecrobot/../ecrobot/libecrobot.a(sound.oram)
                0x002034a8                sample_pattern
 .rodata        0x0020352c        0xc /nxtOSEK/ecrobot/../ecrobot/libecrobot.a(sound.oram)
 .rodata.avr_brainwash_string
                0x00203538       0x30 /nxtOSEK/ecrobot/../ecrobot/libecrobot.a(nxt_avr.oram)
                0x00203538                avr_brainwash_string
 .rodata.nxt_avr_1kHz_update
                0x00203568       0x14 /nxtOSEK/ecrobot/../ecrobot/libecrobot.a(nxt_avr.oram)
 .rodata.C.33.1823
                0x0020357c       0x10 /nxtOSEK/ecrobot/../ecrobot/libecrobot.a(sensors.oram)
 .rodata.C.37.1857
                0x0020358c       0x10 /nxtOSEK/ecrobot/../ecrobot/libecrobot.a(sensors.oram)
 .rodata.C.31.1806
                0x0020359c       0x10 /nxtOSEK/ecrobot/../ecrobot/libecrobot.a(sensors.oram)
 .rodata.str1.4
                0x002035ac       0x23 /nxtOSEK/ecrobot/../ecrobot/libecrobot.a(flash_loader.oram)
                                 0x24 (size before relaxing)
                0x002035d0                . = ALIGN (0x10)
 *fill*         0x002035cf        0x1 00
                0x00200040                __ramtext_ram_start__ = ADDR (.ram_text)
                0x002035d0                __ramtext_ram_end__ = (ADDR (.ram_text) + SIZEOF (.ram_text))
                0x001082c0                __ramtext_load_start__ = LOADADDR (.ram_text)
                0x0010b850                __ramtext_load_end__ = (__ramtext_load_start__ + SIZEOF (.ram_text))

.wav_data       0x0010b850        0x0
 *.owav(*.data *.data.*)
                0x0010b850                . = ALIGN (0x10)

.bmp_data       0x0010b850      0x440
 *.obmp(*.data *.data.*)
 .data          0x0010b850      0x43e /nxtOSEK/ecrobot/../ecrobot/libecrobot.a(nxtosek_splash.obmp)
                0x0010b850                nxtosek_splash_bmp_start
                0x0010bc8e                nxtosek_splash_bmp_end
                0x0010bc90                . = ALIGN (0x10)
 *fill*         0x0010bc8e        0x2 00

.spr_data       0x0010bc90        0x0
 *.ospr(*.data *.data.*)
                0x0010bc90                . = ALIGN (0x10)

.data           0x002035d0       0x80 load address 0x0010bc90
 *(*.data *.data.*)
 .data.bt_status
                0x002035d0        0x1 build/ecrobot_bluetooth.o
 *fill*         0x002035d1        0x3 00
 .data.K_THETADOT
                0x002035d4        0x4 build/com/balancer_param.o
                0x002035d4                K_THETADOT
 .data.K_PHIDOT
                0x002035d8        0x4 build/com/balancer_param.o
                0x002035d8                K_PHIDOT
 .data.K_I      0x002035dc        0x4 build/com/balancer_param.o
                0x002035dc                K_I
 .data.K_F      0x002035e0       0x10 build/com/balancer_param.o
                0x002035e0                K_F
 .data.A_R      0x002035f0        0x4 build/com/balancer_param.o
                0x002035f0                A_R
 .data.A_D      0x002035f4        0x4 build/com/balancer_param.o
                0x002035f4                A_D
 .data.TU_interval
                0x002035f8        0x4 build/unit/TimerUnit.o
 .data.deviceStatus
                0x002035fc        0x1 /nxtOSEK/ecrobot/../ecrobot/libecrobot.a(ecrobot_interface.o)
 .data.named    0x002035fd       0x22 /nxtOSEK/ecrobot/../ecrobot/libecrobot.a(udp.oram)
 .data.snd      0x0020361f       0x1a /nxtOSEK/ecrobot/../ecrobot/libecrobot.a(udp.oram)
 *fill*         0x00203639        0x3 00
 .data.configured
                0x0020363c        0x4 /nxtOSEK/ecrobot/../ecrobot/libecrobot.a(udp.oram)
 .data.mode     0x00203640        0x1 /nxtOSEK/ecrobot/../ecrobot/libecrobot.a(nxt_spi.oram)
                0x00203640                mode
 *fill*         0x00203641        0x3 00
 .bss.data      0x00203644        0x4 /nxtOSEK/ecrobot/../ecrobot/libecrobot.a(nxt_spi.oram)
                0x00203644                data
 .data.display_auto_update
                0x00203648        0x4 /nxtOSEK/ecrobot/../ecrobot/libecrobot.a(display.oram)
                0x00203648                display_auto_update
 .data.display_buffer
                0x0020364c        0x4 /nxtOSEK/ecrobot/../ecrobot/libecrobot.a(display.oram)
                0x00203650                . = ALIGN (0x10)
                0x002035d0                __data_ram_start__ = ADDR (.data)
                0x00203650                __data_ram_end__ = (ADDR (.data) + SIZEOF (.data))
                0x0010bc90                __data_load_start__ = LOADADDR (.data)
                0x0010bd10                __data_load_end__ = (__data_load_start__ + SIZEOF (.data))

.text           0x0010bd10     0x2b20
                0x0010bd10                . = ALIGN (0x10)
 *(*.text *.text.* *.glue*)
 .text.enqueue_alarm
                0x0010bd10       0x90 build/kernel/alarm.o
 .text.alarm_initialize
                0x0010bda0       0x98 build/kernel/alarm.o
                0x0010bda0                alarm_initialize
 .text.SignalCounter
                0x0010be38      0x134 build/kernel/alarm.o
                0x0010be38                SignalCounter
 .text.StartOS  0x0010bf6c       0x58 build/kernel/osctl.o
                0x0010bf6c                StartOS
 .text.ShutdownOS
                0x0010bfc4       0x4c build/kernel/osctl.o
                0x0010bfc4                ShutdownOS
 .text.call_pretaskhook
                0x0010c010       0x24 build/kernel/osctl.o
                0x0010c010                call_pretaskhook
 .text.call_errorhook
                0x0010c034       0x78 build/kernel/osctl.o
                0x0010c034                call_errorhook
 .text.call_posttaskhook
                0x0010c0ac       0x24 build/kernel/osctl.o
                0x0010c0ac                call_posttaskhook
 .text.search_schedtsk
                0x0010c0d0       0x94 build/kernel/task.o
                0x0010c0d0                search_schedtsk
 .text.make_runnable
                0x0010c164       0xac build/kernel/task.o
                0x0010c164                make_runnable
 .text.make_active
                0x0010c210       0x78 build/kernel/task.o
                0x0010c210                make_active
 .text.task_initialize
                0x0010c288       0x90 build/kernel/task.o
                0x0010c288                task_initialize
 .text.ActivateTask
                0x0010c318       0x8c build/kernel/task_manage.o
                0x0010c318                ActivateTask
 .text.TerminateTask
                0x0010c3a4       0x74 build/kernel/task_manage.o
                0x0010c3a4                TerminateTask
 .text.cpu_initialize
                0x0010c418        0x4 build/config/at91sam7s-gnu/cpu_config.o
                0x0010c418                cpu_initialize
 .text.cpu_terminate
                0x0010c41c        0x4 build/config/at91sam7s-gnu/cpu_config.o
                0x0010c41c                cpu_terminate
 .text.sys_initialize
                0x0010c420        0x4 build/config/at91sam7s-gnu/lego_nxt/sys_config.o
                0x0010c420                sys_initialize
 .text.sys_exit
                0x0010c424        0x4 build/config/at91sam7s-gnu/lego_nxt/sys_config.o
                0x0010c424                sys_exit
 .text._activate_alarm_task_balance
                0x0010c428        0xc build/./kernel_cfg.o
 .text._activate_alarm_task_action
                0x0010c434        0xc build/./kernel_cfg.o
 .text._activate_alarm_task_display
                0x0010c440        0xc build/./kernel_cfg.o
 .text.object_initialize
                0x0010c44c       0x10 build/./kernel_cfg.o
                0x0010c44c                object_initialize
 .text.close_bt_stream
                0x0010c45c       0x2c build/ecrobot_bluetooth.o
 .text.ecrobot_send_bt_packet
                0x0010c488       0x54 build/ecrobot_bluetooth.o
                0x0010c488                ecrobot_send_bt_packet
 .text.ecrobot_read_bt_packet
                0x0010c4dc       0x4c build/ecrobot_bluetooth.o
                0x0010c4dc                ecrobot_read_bt_packet
 .text.send_bt_command
                0x0010c528       0x40 build/ecrobot_bluetooth.o
 .text.ecrobot_term_bt_connection
                0x0010c568       0x48 build/ecrobot_bluetooth.o
                0x0010c568                ecrobot_term_bt_connection
 .text.read_bt_command
                0x0010c5b0       0x5c build/ecrobot_bluetooth.o
 .text.open_bt_stream
                0x0010c60c       0x50 build/ecrobot_bluetooth.o
 .text.ecrobot_get_bt_device_address
                0x0010c65c       0x6c build/ecrobot_bluetooth.o
                0x0010c65c                ecrobot_get_bt_device_address
 .text.ecrobot_init_bt_master
                0x0010c6c8      0x108 build/ecrobot_bluetooth.o
                0x0010c6c8                ecrobot_init_bt_master
 .text.ecrobot_init_bt_slave
                0x0010c7d0      0x12c build/ecrobot_bluetooth.o
                0x0010c7d0                ecrobot_init_bt_slave
 .text.init_OS_flag
                0x0010c8fc        0xc build/ecrobot_base.o
                0x0010c8fc                init_OS_flag
 .text.set_OS_flag
                0x0010c908        0xc build/ecrobot_base.o
                0x0010c908                set_OS_flag
 .text.get_OS_flag
                0x0010c914        0xc build/ecrobot_base.o
                0x0010c914                get_OS_flag
 .text.cpp_constructor
                0x0010c920       0x28 build/ecrobot_base.o
                0x0010c920                cpp_constructor
 .text.cpp_destructor
                0x0010c948       0x28 build/ecrobot_base.o
                0x0010c948                cpp_destructor
 .text.execution_mode
                0x0010c970       0x24 build/ecrobot_base.o
                0x0010c970                execution_mode
 .text.show_main_screen
                0x0010c994       0x48 build/ecrobot_base.o
                0x0010c994                show_main_screen
 .text.display_status_bar
                0x0010c9dc       0x5c build/ecrobot_base.o
                0x0010c9dc                display_status_bar
 .text.restart_NXT
                0x0010ca38       0x2c build/ecrobot_base.o
                0x0010ca38                restart_NXT
 .text.shutdown_NXT
                0x0010ca64       0x2c build/ecrobot_base.o
                0x0010ca64                shutdown_NXT
 .text.check_NXT_buttons
                0x0010ca90       0x38 build/ecrobot_base.o
                0x0010ca90                check_NXT_buttons
 .text.show_bd_addr
                0x0010cac8       0x44 build/ecrobot_base.o
                0x0010cac8                show_bd_addr
 .text.show_bd_addr_err
                0x0010cb0c       0x3c build/ecrobot_base.o
                0x0010cb0c                show_bd_addr_err
 .text.add_status_info
                0x0010cb48       0x68 build/ecrobot_base.o
                0x0010cb48                add_status_info
 .text.show_splash_screen
                0x0010cbb0       0x90 build/ecrobot_base.o
                0x0010cbb0                show_splash_screen
 .text.main     0x0010cc40      0x10c build/ecrobot.o
                0x0010cc40                main
 .text.RN_post  0x0010cd4c       0x14 build/controller/Runner.o
                0x0010cd4c                RN_post
 .text.RN_get_state
                0x0010cd60        0xc build/controller/Runner.o
                0x0010cd60                RN_get_state
 .text.RN_pre   0x0010cd6c       0x28 build/controller/Runner.o
                0x0010cd6c                RN_pre
 .text.RN_calibrate
                0x0010cd94       0x18 build/controller/Runner.o
                0x0010cd94                RN_calibrate
 .text.RN_ready
                0x0010cdac       0x4c build/controller/Runner.o
                0x0010cdac                RN_ready
 .text.RN_bump_ready
                0x0010cdf8       0x18 build/controller/Runner.o
                0x0010cdf8                RN_bump_ready
 .text.RN_takeover
                0x0010ce10       0x30 build/controller/Runner.o
                0x0010ce10                RN_takeover
 .text.RN_run   0x0010ce40       0x20 build/controller/Runner.o
                0x0010ce40                RN_run
 .text.RN_do_run
                0x0010ce60       0x3c build/controller/Runner.o
                0x0010ce60                RN_do_run
 .text.TaskMainActionTask
                0x0010ce9c       0x10 build/controller/Runner.o
                0x0010ce9c                TaskMainActionTask
 .text.M_inform
                0x0010ceac       0x90 build/controller/Monitor.o
                0x0010ceac                M_inform
 .text.TaskMainDisplayTask
                0x0010cf3c       0x10 build/controller/Monitor.o
                0x0010cf3c                TaskMainDisplayTask
 .text.RA_pre   0x0010cf4c        0x4 build/controller/RunActions.o
                0x0010cf4c                RA_pre
 .text.RA_post  0x0010cf50        0x4 build/controller/RunActions.o
                0x0010cf50                RA_post
 .text.RA_linetrace
                0x0010cf54       0x2c build/controller/RunActions.o
                0x0010cf54                RA_linetrace
 .text.RA_watch_goal_tracing
                0x0010cf80       0x10 build/controller/RunActions.o
                0x0010cf80                RA_watch_goal_tracing
 .text.RA_takeover
                0x0010cf90       0x10 build/controller/RunActions.o
                0x0010cf90                RA_takeover
 .text.RA_stop  0x0010cfa0        0xc build/controller/RunActions.o
                0x0010cfa0                RA_stop
 .text.CA_pre   0x0010cfac       0x10 build/controller/CalibrateActions.o
                0x0010cfac                CA_pre
 .text.CA_post  0x0010cfbc       0x10 build/controller/CalibrateActions.o
                0x0010cfbc                CA_post
 .text.CA_set_threshold
                0x0010cfcc       0x2c build/controller/CalibrateActions.o
                0x0010cfcc                CA_set_threshold
 .text.BU_is_touched
                0x0010cff8        0xc build/unit/BumperUnit.o
                0x0010cff8                BU_is_touched
 .text.BU_is_clicked
                0x0010d004       0x38 build/unit/BumperUnit.o
                0x0010d004                BU_is_clicked
 .text.LMU_set_threshold
                0x0010d03c        0xc build/unit/LineMonitorUnit.o
                0x0010d03c                LMU_set_threshold
 .text.LMU_set_white_value
                0x0010d048        0xc build/unit/LineMonitorUnit.o
                0x0010d048                LMU_set_white_value
 .text.LMU_get_white_value
                0x0010d054        0xc build/unit/LineMonitorUnit.o
                0x0010d054                LMU_get_white_value
 .text.LMU_set_gray_value
                0x0010d060        0xc build/unit/LineMonitorUnit.o
                0x0010d060                LMU_set_gray_value
 .text.LMU_get_gray_value
                0x0010d06c        0xc build/unit/LineMonitorUnit.o
                0x0010d06c                LMU_get_gray_value
 .text.LMU_set_black_value
                0x0010d078        0xc build/unit/LineMonitorUnit.o
                0x0010d078                LMU_set_black_value
 .text.LMU_get_black_value
                0x0010d084        0xc build/unit/LineMonitorUnit.o
                0x0010d084                LMU_get_black_value
 .text.LMU_is_online
                0x0010d090       0x2c build/unit/LineMonitorUnit.o
                0x0010d090                LMU_is_online
 .text.LMU_pre  0x0010d0bc        0xc build/unit/LineMonitorUnit.o
                0x0010d0bc                LMU_pre
 .text.LMU_post
                0x0010d0c8        0xc build/unit/LineMonitorUnit.o
                0x0010d0c8                LMU_post
 .text.DU_show_string
                0x0010d0d4       0x18 build/unit/DisplayUnit.o
                0x0010d0d4                DU_show_string
 .text.DU_show_number
                0x0010d0ec       0x1c build/unit/DisplayUnit.o
                0x0010d0ec                DU_show_number
 .text.HU_ok_sound
                0x0010d108       0x48 build/unit/HornUnit.o
                0x0010d108                HU_ok_sound
 .text.TU_start
                0x0010d150       0x28 build/unit/TimerUnit.o
                0x0010d150                TU_start
 .text.TU_finish
                0x0010d178       0x24 build/unit/TimerUnit.o
                0x0010d178                TU_finish
 .text.TU_is_start
                0x0010d19c        0xc build/unit/TimerUnit.o
                0x0010d19c                TU_is_start
 .text.TU_is_timeout
                0x0010d1a8        0xc build/unit/TimerUnit.o
                0x0010d1a8                TU_is_timeout
 .text.AlarmMainCountTimer
                0x0010d1b4       0x4c build/unit/TimerUnit.o
                0x0010d1b4                AlarmMainCountTimer
 .text.CU_set_sendMSG
                0x0010d200        0xc build/unit/CommunicationUnit.o
                0x0010d200                CU_set_sendMSG
 .text.CU_set_recvMSG
                0x0010d20c        0xc build/unit/CommunicationUnit.o
                0x0010d20c                CU_set_recvMSG
 .text.CU_set_mode
                0x0010d218       0x28 build/unit/CommunicationUnit.o
                0x0010d218                CU_set_mode
 .text.CU_send_mail
                0x0010d240       0x28 build/unit/CommunicationUnit.o
                0x0010d240                CU_send_mail
 .text.CU_is_received
                0x0010d268       0x34 build/unit/CommunicationUnit.o
                0x0010d268                CU_is_received
 .text.CU_pre   0x0010d29c       0x2c build/unit/CommunicationUnit.o
                0x0010d29c                CU_pre
 .text.CU_post  0x0010d2c8        0xc build/unit/CommunicationUnit.o
                0x0010d2c8                CU_post
 .text.BLNU_pre
                0x0010d2d4       0x24 build/unit/BalancerUnit.o
                0x0010d2d4                BLNU_pre
 .text.BLNU_post
                0x0010d2f8        0x4 build/unit/BalancerUnit.o
                0x0010d2f8                BLNU_post
 .text.BLNU_forward
                0x0010d2fc       0x24 build/unit/BalancerUnit.o
                0x0010d2fc                BLNU_forward
 .text.BLNU_turn_right
                0x0010d320       0x24 build/unit/BalancerUnit.o
                0x0010d320                BLNU_turn_right
 .text.BLNU_turn_left
                0x0010d344       0x28 build/unit/BalancerUnit.o
                0x0010d344                BLNU_turn_left
 .text.BLNU_stop
                0x0010d36c       0x14 build/unit/BalancerUnit.o
                0x0010d36c                BLNU_stop
 .text.BLNU_set_gyro_offset
                0x0010d380       0x14 build/unit/BalancerUnit.o
                0x0010d380                BLNU_set_gyro_offset
 .text.BLNU_balance_control
                0x0010d394       0xf4 build/unit/BalancerUnit.o
                0x0010d394                BLNU_balance_control
 .text.BLNU_balance_start
                0x0010d488        0xc build/unit/BalancerUnit.o
                0x0010d488                BLNU_balance_start
 .text.TaskMainBalanceTask
                0x0010d494       0x1c build/unit/BalancerUnit.o
                0x0010d494                TaskMainBalanceTask
 .text.ecrobot_device_initialize
                0x0010d4b0        0xc build/controller/initDevice.o
                0x0010d4b0                ecrobot_device_initialize
 .text.ecrobot_device_terminate
                0x0010d4bc        0xc build/controller/initDevice.o
                0x0010d4bc                ecrobot_device_terminate
 .text.StartupHook
                0x0010d4c8        0x4 build/controller/initDevice.o
                0x0010d4c8                StartupHook
 .text.ShutdownHook
                0x0010d4cc        0x4 build/controller/initDevice.o
                0x0010d4cc                ShutdownHook
 .text.PreTaskHook
                0x0010d4d0        0x4 build/controller/initDevice.o
                0x0010d4d0                PreTaskHook
 .text.PostTaskHook
                0x0010d4d4        0x4 build/controller/initDevice.o
                0x0010d4d4                PostTaskHook
 .text.ErrorHook
                0x0010d4d8        0x4 build/controller/initDevice.o
                0x0010d4d8                ErrorHook
 .text.user_1ms_isr_type2
                0x0010d4dc       0x1c build/controller/initDevice.o
                0x0010d4dc                user_1ms_isr_type2
 .text.ecrobot_get_gyro_sensor
                0x0010d4f8       0x14 /nxtOSEK/ecrobot/../ecrobot/libecrobot.a(ecrobot_HiTechnic.o)
                0x0010d4f8                ecrobot_get_gyro_sensor
 .text.ecrobot_set_motor_rev
                0x0010d50c       0x10 /nxtOSEK/ecrobot/../ecrobot/libecrobot.a(ecrobot_interface.o)
                0x0010d50c                ecrobot_set_motor_rev
 .text.ecrobot_set_light_sensor_active
                0x0010d51c       0x10 /nxtOSEK/ecrobot/../ecrobot/libecrobot.a(ecrobot_interface.o)
                0x0010d51c                ecrobot_set_light_sensor_active
 .text.ecrobot_set_light_sensor_inactive
                0x0010d52c       0x10 /nxtOSEK/ecrobot/../ecrobot/libecrobot.a(ecrobot_interface.o)
                0x0010d52c                ecrobot_set_light_sensor_inactive
 .text.ecrobot_get_light_sensor
                0x0010d53c       0x14 /nxtOSEK/ecrobot/../ecrobot/libecrobot.a(ecrobot_interface.o)
                0x0010d53c                ecrobot_get_light_sensor
 .text.ecrobot_get_touch_sensor
                0x0010d550       0x20 /nxtOSEK/ecrobot/../ecrobot/libecrobot.a(ecrobot_interface.o)
                0x0010d550                ecrobot_get_touch_sensor
 .text.ecrobot_get_battery_voltage
                0x0010d570        0xc /nxtOSEK/ecrobot/../ecrobot/libecrobot.a(ecrobot_interface.o)
                0x0010d570                ecrobot_get_battery_voltage
 .text.ecrobot_get_button_state
                0x0010d57c        0xc /nxtOSEK/ecrobot/../ecrobot/libecrobot.a(ecrobot_interface.o)
                0x0010d57c                ecrobot_get_button_state
 .text.ecrobot_init_nxtstate
                0x0010d588       0x28 /nxtOSEK/ecrobot/../ecrobot/libecrobot.a(ecrobot_interface.o)
                0x0010d588                ecrobot_init_nxtstate
 .text.ecrobot_poll_nxtstate
                0x0010d5b0       0x64 /nxtOSEK/ecrobot/../ecrobot/libecrobot.a(ecrobot_interface.o)
                0x0010d5b0                ecrobot_poll_nxtstate
 .text.ecrobot_setDeviceInitialized
                0x0010d614       0x18 /nxtOSEK/ecrobot/../ecrobot/libecrobot.a(ecrobot_interface.o)
                0x0010d614                ecrobot_setDeviceInitialized
 .text.ecrobot_initDeviceStatus
                0x0010d62c        0xc /nxtOSEK/ecrobot/../ecrobot/libecrobot.a(ecrobot_interface.o)
                0x0010d62c                ecrobot_initDeviceStatus
 .text.ecrobot_bmp2lcd
                0x0010d638      0x1c8 /nxtOSEK/ecrobot/../ecrobot/libecrobot.a(ecrobot_interface.o)
                0x0010d638                ecrobot_bmp2lcd
 .text.ecrobot_sound_tone
                0x0010d800        0xc /nxtOSEK/ecrobot/../ecrobot/libecrobot.a(ecrobot_interface.o)
                0x0010d800                ecrobot_sound_tone
 .text.balance_control
                0x0010d80c      0x254 /nxtOSEK/ecrobot/../ecrobot/libnxtway_gs_balancer.a(balancer.o)
                0x0010d80c                balance_control
 .text.balance_init
                0x0010da60       0x30 /nxtOSEK/ecrobot/../ecrobot/libnxtway_gs_balancer.a(balancer.o)
                0x0010da60                balance_init
 .text          0x0010da90       0x8c /cygdrive/C/cygwin/GNUARM/bin/../lib/gcc/arm-elf/4.0.2/thumb/interwork/libgcc.a(_udivsi3.o)
                0x0010da90                __udivsi3
                0x0010db0c                __aeabi_uidivmod
 .text          0x0010db1c       0xa4 /cygdrive/C/cygwin/GNUARM/bin/../lib/gcc/arm-elf/4.0.2/thumb/interwork/libgcc.a(_divsi3.o)
                0x0010db1c                __divsi3
                0x0010dbb0                __aeabi_idivmod
 .text          0x0010dbc0       0xc8 /cygdrive/C/cygwin/GNUARM/bin/../lib/gcc/arm-elf/4.0.2/thumb/interwork/libgcc.a(_umodsi3.o)
                0x0010dbc0                __umodsi3
 .text          0x0010dc88       0xd8 /cygdrive/C/cygwin/GNUARM/bin/../lib/gcc/arm-elf/4.0.2/thumb/interwork/libgcc.a(_modsi3.o)
                0x0010dc88                __modsi3
 .text          0x0010dd60        0x4 /cygdrive/C/cygwin/GNUARM/bin/../lib/gcc/arm-elf/4.0.2/thumb/interwork/libgcc.a(_dvmd_tls.o)
                0x0010dd60                __aeabi_ldiv0
                0x0010dd60                __div0
                0x0010dd60                __aeabi_idiv0
 .text          0x0010dd64      0x2ac /cygdrive/C/cygwin/GNUARM/bin/../lib/gcc/arm-elf/4.0.2/thumb/interwork/libgcc.a(_addsubsf3.o)
                0x0010dd70                __aeabi_fadd
                0x0010dd6c                __subsf3
                0x0010df34                __aeabi_i2f
                0x0010dd6c                __aeabi_fsub
                0x0010df64                __floatdisf
                0x0010df34                __floatsisf
                0x0010df54                __floatundisf
                0x0010df2c                __aeabi_ui2f
                0x0010df64                __aeabi_l2f
                0x0010df54                __aeabi_ul2f
                0x0010dd64                __aeabi_frsub
                0x0010df2c                __floatunsisf
                0x0010dd70                __addsf3
 .text          0x0010e010      0x2f8 /cygdrive/C/cygwin/GNUARM/bin/../lib/gcc/arm-elf/4.0.2/thumb/interwork/libgcc.a(_muldivsf3.o)
                0x0010e1a8                __divsf3
                0x0010e1a8                __aeabi_fdiv
                0x0010e010                __mulsf3
                0x0010e010                __aeabi_fmul
 .text          0x0010e308      0x110 /cygdrive/C/cygwin/GNUARM/bin/../lib/gcc/arm-elf/4.0.2/thumb/interwork/libgcc.a(_cmpsf2.o)
                0x0010e400                __aeabi_fcmpgt
                0x0010e310                __lesf2
                0x0010e318                __nesf2
                0x0010e3e8                __aeabi_fcmpge
                0x0010e308                __gtsf2
                0x0010e3d0                __aeabi_fcmple
                0x0010e318                __eqsf2
                0x0010e318                __cmpsf2
                0x0010e310                __ltsf2
                0x0010e388                __aeabi_cfcmple
                0x0010e308                __gesf2
                0x0010e3a0                __aeabi_fcmpeq
                0x0010e378                __aeabi_cfrcmple
                0x0010e3b8                __aeabi_fcmplt
                0x0010e388                __aeabi_cfcmpeq
 .text          0x0010e418       0x5c /cygdrive/C/cygwin/GNUARM/bin/../lib/gcc/arm-elf/4.0.2/thumb/interwork/libgcc.a(_fixsfsi.o)
                0x0010e418                __fixsfsi
                0x0010e418                __aeabi_f2iz
 .text          0x0010e474       0x68 /cygdrive/C/cygwin/GNUARM/bin/../lib/gcc/arm-elf/4.0.2/../../../../arm-elf/lib/thumb/interwork/libc.a(memcpy.o)
                0x0010e474                memcpy
 .text          0x0010e4dc       0x68 /cygdrive/C/cygwin/GNUARM/bin/../lib/gcc/arm-elf/4.0.2/../../../../arm-elf/lib/thumb/interwork/libc.a(memset.o)
                0x0010e4dc                memset
 .text          0x0010e544       0x60 /cygdrive/C/cygwin/GNUARM/bin/../lib/gcc/arm-elf/4.0.2/../../../../arm-elf/lib/thumb/interwork/libc.a(strcpy.o)
                0x0010e544                strcpy
 .text          0x0010e5a4       0x48 /cygdrive/C/cygwin/GNUARM/bin/../lib/gcc/arm-elf/4.0.2/../../../../arm-elf/lib/thumb/interwork/libc.a(strlen.o)
                0x0010e5a4                strlen
 .glue_7        0x0010e5ec       0x30 /cygdrive/C/cygwin/GNUARM/bin/../lib/gcc/arm-elf/4.0.2/../../../../arm-elf/lib/thumb/interwork/libc.a(strncpy.o)
                0x0010e604                __call_posttaskhook_from_arm
                0x0010e5ed                __ecrobot_debug1_from_arm
                0x0010e5f9                __ecrobot_debug2_from_arm
                0x0010e610                __call_pretaskhook_from_arm
 .glue_7t       0x0010e61c       0xb0 /cygdrive/C/cygwin/GNUARM/bin/../lib/gcc/arm-elf/4.0.2/../../../../arm-elf/lib/thumb/interwork/libc.a(strncpy.o)
                0x0010e648                __start_change_to_arm
                0x0010e6a4                __interrupts_get_and_disable_from_thumb
                0x0010e6c4                ____lesf2_from_thumb
                0x0010e69d                ____gtdf2_from_thumb
                0x0010e63c                __exit_and_dispatch_from_thumb
                0x0010e6bc                ____divsf3_from_thumb
                0x0010e688                ____gesf2_change_to_arm
                0x0010e670                ____fixsfsi_change_to_arm
                0x0010e680                ____addsf3_change_to_arm
                0x0010e66c                ____fixsfsi_from_thumb
                0x0010e64c                ____floatsisf_from_thumb
                0x0010e640                __exit_and_dispatch_change_to_arm
                0x0010e61c                __disable_int_from_thumb
                0x0010e684                ____gesf2_from_thumb
                0x0010e634                __start_dispatch_from_thumb
                0x0010e65d                ____ltsf2_from_thumb
                0x0010e6c8                ____lesf2_change_to_arm
                0x0010e644                __start_from_thumb
                0x0010e698                ____muldf3_change_to_arm
                0x0010e6c0                ____divsf3_change_to_arm
                0x0010e624                __enable_int_from_thumb
                0x0010e62c                __dispatch_from_thumb
                0x0010e6b0                __interrupts_enable_change_to_arm
                0x0010e665                ____gtsf2_from_thumb
                0x0010e6a8                __interrupts_get_and_disable_change_to_arm
                0x0010e630                __dispatch_change_to_arm
                0x0010e658                ____mulsf3_change_to_arm
                0x0010e6a0                ____gtdf2_change_to_arm
                0x0010e68d                ____floatsidf_from_thumb
                0x0010e650                ____floatsisf_change_to_arm
                0x0010e6b5                __display_bios_status_from_thumb
                0x0010e674                ____subsf3_from_thumb
                0x0010e668                ____gtsf2_change_to_arm
                0x0010e620                __disable_int_change_to_arm
                0x0010e660                ____ltsf2_change_to_arm
                0x0010e654                ____mulsf3_from_thumb
                0x0010e67c                ____addsf3_from_thumb
                0x0010e695                ____muldf3_from_thumb
                0x0010e678                ____subsf3_change_to_arm
                0x0010e628                __enable_int_change_to_arm
                0x0010e690                ____floatsidf_change_to_arm
                0x0010e6ac                __interrupts_enable_from_thumb
                0x0010e6b8                __display_bios_status_change_to_arm
                0x0010e638                __start_dispatch_change_to_arm
                0x0010e6d0                . = ALIGN (0x10)
 *fill*         0x0010e6cc        0x4 00
 *(*.rodata *.rodata.*)
 .rodata.search_table.966
                0x0010e6d0        0xf build/kernel/task.o
 *fill*         0x0010e6df        0x1 00
 .rodata.alminib_cycle
                0x0010e6e0       0x10 build/./kernel_cfg.o
                0x0010e6e0                alminib_cycle
 .rodata.alminib_almval
                0x0010e6f0       0x10 build/./kernel_cfg.o
                0x0010e6f0                alminib_almval
 .rodata.alminib_autosta
                0x0010e700        0x4 build/./kernel_cfg.o
                0x0010e700                alminib_autosta
 .rodata.alminib_cback
                0x0010e704       0x10 build/./kernel_cfg.o
                0x0010e704                alminib_cback
 .rodata.alminib_cntid
                0x0010e714        0x4 build/./kernel_cfg.o
                0x0010e714                alminib_cntid
 .rodata.cntinib_tickbase
                0x0010e718        0x4 build/./kernel_cfg.o
                0x0010e718                cntinib_tickbase
 .rodata.cntinib_maxval2
                0x0010e71c        0x4 build/./kernel_cfg.o
                0x0010e71c                cntinib_maxval2
 .rodata.cntinib_maxval
                0x0010e720        0x4 build/./kernel_cfg.o
                0x0010e720                cntinib_maxval
 .rodata.SysTimerCnt
                0x0010e724        0x1 build/./kernel_cfg.o
                0x0010e724                SysTimerCnt
 *fill*         0x0010e725        0x1 00
 .rodata.tinib_stksz
                0x0010e726        0x6 build/./kernel_cfg.o
                0x0010e726                tinib_stksz
 .rodata.tinib_stk
                0x0010e72c        0xc build/./kernel_cfg.o
                0x0010e72c                tinib_stk
 .rodata.tinib_task
                0x0010e738        0xc build/./kernel_cfg.o
                0x0010e738                tinib_task
 .rodata.tinib_autoact
                0x0010e744        0x3 build/./kernel_cfg.o
                0x0010e744                tinib_autoact
 .rodata.tinib_maxact
                0x0010e747        0x3 build/./kernel_cfg.o
                0x0010e747                tinib_maxact
 .rodata.tinib_exepri
                0x0010e74a        0x3 build/./kernel_cfg.o
                0x0010e74a                tinib_exepri
 .rodata.tinib_inipri
                0x0010e74d        0x3 build/./kernel_cfg.o
                0x0010e74d                tinib_inipri
 .rodata.tnum_exttask
                0x0010e750        0x1 build/./kernel_cfg.o
                0x0010e750                tnum_exttask
 .rodata.tnum_task
                0x0010e751        0x1 build/./kernel_cfg.o
                0x0010e751                tnum_task
 .rodata.tnum_counter
                0x0010e752        0x1 build/./kernel_cfg.o
                0x0010e752                tnum_counter
 .rodata.tnum_alarm
                0x0010e753        0x1 build/./kernel_cfg.o
                0x0010e753                tnum_alarm
 .rodata.exec_addr
                0x0010e754        0x4 build/ecrobot_base.o
                0x0010e754                exec_addr
 .rodata.str1.4
                0x0010e758       0x80 build/ecrobot_base.o
 .rodata.BATTERY_OFFSET
                0x0010e7d8        0x4 build/com/balancer_param.o
                0x0010e7d8                BATTERY_OFFSET
 .rodata.BATTERY_GAIN
                0x0010e7dc        0x4 build/com/balancer_param.o
                0x0010e7dc                BATTERY_GAIN
 .rodata.bd_addr
                0x0010e7e0        0x7 build/controller/Runner.o
 *fill*         0x0010e7e7        0x1 00
 .rodata.RN_do_run
                0x0010e7e8       0x14 build/controller/Runner.o
 .rodata.str1.4
                0x0010e7fc       0x28 build/controller/Monitor.o
 .rodata.CU_pass
                0x0010e824        0xc build/unit/CommunicationUnit.o
                0x0010e824                CU_pass
                0x0010e830                . = ALIGN (0x10)
 *(*.gnu.linkonce.* .gcc_except_table)
                0x0010e830                . = ALIGN (0x10)

.tors           0x0010e830        0x0
                0x0010e830                . = ALIGN (0x10)
                0x0010e830                __ctor_begin = .
 *(*.ctors*)
                0x0010e830                __ctor_end = .
                0x0010e830                . = ALIGN (0x10)
                0x0010e830                __dtor_begin = .
 *(*.dtors*)
                0x0010e830                __dtor_end = .
                0x0010e830                . = ALIGN (0x10)
                0x0010e830                __rom_end__ = __dtor_end

.bss            0x00203650     0x1834
 *(*.bss *.bss.*)
 .bss.ready_primap
                0x00203650        0x2 build/kernel/task.o
 .bss.ready_queue_last
                0x00203652       0x10 build/kernel/task.o
 .bss.ready_queue_first
                0x00203662       0x10 build/kernel/task.o
 *fill*         0x00203672        0x2 00
 .bss._stack_DisplayTask
                0x00203674      0x200 build/./kernel_cfg.o
 .bss._stack_ActionTask
                0x00203874      0x200 build/./kernel_cfg.o
 .bss._stack_BalanceTask
                0x00203a74      0x200 build/./kernel_cfg.o
 .bss.receiveBuf
                0x00203c74       0x80 build/ecrobot_bluetooth.o
 .bss.sendBuf   0x00203cf4      0x100 build/ecrobot_bluetooth.o
 .bss.handle    0x00203df4        0x1 build/ecrobot_bluetooth.o
 *fill*         0x00203df5        0x3 00
 .bss.status_bar_position
                0x00203df8        0x4 build/ecrobot_base.o
 .bss.last_act_time.2745
                0x00203dfc        0x4 build/ecrobot_base.o
 .bss.lcd.2674  0x00203e00      0x320 build/ecrobot_base.o
 .bss.OS_flag   0x00204120        0x4 build/ecrobot_base.o
 .bss.status_bar
                0x00204124       0x10 build/ecrobot_base.o
 .bss.RN_state  0x00204134        0x4 build/controller/Runner.o
 .bss.RN_state.3192
                0x00204138        0x4 build/controller/Monitor.o
 .bss.click_state
                0x0020413c        0x4 build/unit/BumperUnit.o
 .bss.LMU_gray_value
                0x00204140        0x4 build/unit/LineMonitorUnit.o
 .bss.LMU_threshold
                0x00204144        0x4 build/unit/LineMonitorUnit.o
 .bss.LMU_black_value
                0x00204148        0x4 build/unit/LineMonitorUnit.o
 .bss.LMU_white_value
                0x0020414c        0x4 build/unit/LineMonitorUnit.o
 .bss.TU_timerResult
                0x00204150        0x4 build/unit/TimerUnit.o
 .bss.TU_timeOut
                0x00204154        0x4 build/unit/TimerUnit.o
 .bss.TU_timerCount
                0x00204158        0x4 build/unit/TimerUnit.o
 .bss.TU_timerStart
                0x0020415c        0x4 build/unit/TimerUnit.o
 .bss.CU_mode   0x00204160        0x4 build/unit/CommunicationUnit.o
 .bss.CU_recvMSG
                0x00204164        0x4 build/unit/CommunicationUnit.o
 .bss.CU_sendMSG
                0x00204168        0x4 build/unit/CommunicationUnit.o
 .bss.bd_addr   0x0020416c        0x7 build/unit/CommunicationUnit.o
 *fill*         0x00204173        0x1 00
 .bss.BLNU_balance_startflg
                0x00204174        0x4 build/unit/BalancerUnit.o
 .bss.BLNU_gyro_offset
                0x00204178        0x4 build/unit/BalancerUnit.o
 .bss.BLNU_cmd_turn
                0x0020417c        0x1 build/unit/BalancerUnit.o
 .bss.BLNU_cmd_forward
                0x0020417d        0x1 build/unit/BalancerUnit.o
 *fill*         0x0020417e        0x2 00
 .bss.BLNU_motor_angle_control
                0x00204180        0x4 build/unit/BalancerUnit.o
 .bss.buttons_i
                0x00204184        0x4 /nxtOSEK/ecrobot/../ecrobot/libecrobot.a(ecrobot_interface.o)
 .bss.buttons_states
                0x00204188       0x14 /nxtOSEK/ecrobot/../ecrobot/libecrobot.a(ecrobot_interface.o)
 .bss.ecrobot_inputs
                0x0020419c        0x8 /nxtOSEK/ecrobot/../ecrobot/libecrobot.a(ecrobot_interface.o)
 .bss.systick_ms
                0x002041a4        0x4 /nxtOSEK/ecrobot/../ecrobot/libecrobot.a(systick.oram)
 .bss.delayedEnable
                0x002041a8        0x1 /nxtOSEK/ecrobot/../ecrobot/libecrobot.a(udp.oram)
 *fill*         0x002041a9        0x3 00
 .bss.outCnt    0x002041ac        0x4 /nxtOSEK/ecrobot/../ecrobot/libecrobot.a(udp.oram)
 .bss.outPtr    0x002041b0        0x4 /nxtOSEK/ecrobot/../ecrobot/libecrobot.a(udp.oram)
 .bss.newAddress
                0x002041b4        0x4 /nxtOSEK/ecrobot/../ecrobot/libecrobot.a(udp.oram)
 .bss.currentRxBank
                0x002041b8        0x4 /nxtOSEK/ecrobot/../ecrobot/libecrobot.a(udp.oram)
 .bss.currentFeatures
                0x002041bc        0x4 /nxtOSEK/ecrobot/../ecrobot/libecrobot.a(udp.oram)
 .bss.currentConfig
                0x002041c0        0x1 /nxtOSEK/ecrobot/../ecrobot/libecrobot.a(udp.oram)
 *fill*         0x002041c1        0x3 00
 .bss.twi_mask  0x002041c4        0x4 /nxtOSEK/ecrobot/../ecrobot/libecrobot.a(twi.oram)
 .bss.twi_ptr   0x002041c8        0x4 /nxtOSEK/ecrobot/../ecrobot/libecrobot.a(twi.oram)
 .bss.twi_pending
                0x002041cc        0x4 /nxtOSEK/ecrobot/../ecrobot/libecrobot.a(twi.oram)
 .bss.twi_state
                0x002041d0        0x4 /nxtOSEK/ecrobot/../ecrobot/libecrobot.a(twi.oram)
 .bss.page      0x002041d4        0x1 /nxtOSEK/ecrobot/../ecrobot/libecrobot.a(nxt_spi.oram)
                0x002041d4                page
 .bss.dirty     0x002041d5        0x1 /nxtOSEK/ecrobot/../ecrobot/libecrobot.a(nxt_spi.oram)
                0x002041d5                dirty
 *fill*         0x002041d6        0x2 00
 .bss.display   0x002041d8        0x4 /nxtOSEK/ecrobot/../ecrobot/libecrobot.a(nxt_spi.oram)
                0x002041d8                display
 .bss.interrupts_this_period
                0x002041dc        0x4 /nxtOSEK/ecrobot/../ecrobot/libecrobot.a(nxt_motors.oram)
 .bss.nxt_motor_initialised
                0x002041e0        0x4 /nxtOSEK/ecrobot/../ecrobot/libecrobot.a(nxt_motors.oram)
 .bss.motor     0x002041e4       0x30 /nxtOSEK/ecrobot/../ecrobot/libecrobot.a(nxt_motors.oram)
 .bss.display_tick
                0x00204214        0x4 /nxtOSEK/ecrobot/../ecrobot/libecrobot.a(display.oram)
                0x00204214                display_tick
 .bss.display_array
                0x00204218      0x388 /nxtOSEK/ecrobot/../ecrobot/libecrobot.a(display.oram)
 .bss.i2c_int_count
                0x002045a0        0x4 /nxtOSEK/ecrobot/../ecrobot/libecrobot.a(i2c.oram)
 .bss.i2c_port  0x002045a4      0x170 /nxtOSEK/ecrobot/../ecrobot/libecrobot.a(i2c.oram)
 .bss.sound_mode
                0x00204714        0x1 /nxtOSEK/ecrobot/../ecrobot/libecrobot.a(sound.oram)
                0x00204714                sound_mode
 *fill*         0x00204715        0x3 00
 .bss.in_buf_idx
                0x00204718        0x4 /nxtOSEK/ecrobot/../ecrobot/libecrobot.a(bt.oram)
 .bss.buf_ptr   0x0020471c        0x4 /nxtOSEK/ecrobot/../ecrobot/libecrobot.a(bt.oram)
 .bss.out_buf   0x00204720      0x200 /nxtOSEK/ecrobot/../ecrobot/libecrobot.a(bt.oram)
 .bss.out_buf_ptr
                0x00204920        0x1 /nxtOSEK/ecrobot/../ecrobot/libecrobot.a(bt.oram)
 .bss.in_buf_in_ptr
                0x00204921        0x1 /nxtOSEK/ecrobot/../ecrobot/libecrobot.a(bt.oram)
 .bss.in_buf    0x00204922      0x100 /nxtOSEK/ecrobot/../ecrobot/libecrobot.a(bt.oram)
 *fill*         0x00204a22        0x2 00
 .bss.link_state
                0x00204a24        0x4 /nxtOSEK/ecrobot/../ecrobot/libecrobot.a(nxt_avr.oram)
 .bss.update_count
                0x00204a28        0x4 /nxtOSEK/ecrobot/../ecrobot/libecrobot.a(nxt_avr.oram)
 .bss.nxt_avr_stats
                0x00204a2c       0x14 /nxtOSEK/ecrobot/../ecrobot/libecrobot.a(nxt_avr.oram)
 .bss.debounce_cnt
                0x00204a40        0x2 /nxtOSEK/ecrobot/../ecrobot/libecrobot.a(nxt_avr.oram)
 .bss.debounce_state
                0x00204a42        0x2 /nxtOSEK/ecrobot/../ecrobot/libecrobot.a(nxt_avr.oram)
 .bss.button_state
                0x00204a44        0x2 /nxtOSEK/ecrobot/../ecrobot/libecrobot.a(nxt_avr.oram)
 .bss.prev_buttons
                0x00204a46        0x2 /nxtOSEK/ecrobot/../ecrobot/libecrobot.a(nxt_avr.oram)
 .bss.from_buf  0x00204a48        0x4 /nxtOSEK/ecrobot/../ecrobot/libecrobot.a(nxt_avr.oram)
 .bss.io_from_avr
                0x00204a4c        0x4 /nxtOSEK/ecrobot/../ecrobot/libecrobot.a(nxt_avr.oram)
 .bss.data_from_avr
                0x00204a50       0x1a /nxtOSEK/ecrobot/../ecrobot/libecrobot.a(nxt_avr.oram)
 .bss.data_to_avr
                0x00204a6a        0x9 /nxtOSEK/ecrobot/../ecrobot/libecrobot.a(nxt_avr.oram)
 .bss.io_to_avr
                0x00204a73        0x8 /nxtOSEK/ecrobot/../ecrobot/libecrobot.a(nxt_avr.oram)
 *fill*         0x00204a7b        0x1 00
 .bss.display   0x00204a7c        0x4 /nxtOSEK/ecrobot/../ecrobot/libecrobot.a(nxt_lcd.oram)
 .bss.ud_thetadot_cmd_lpf
                0x00204a80        0x4 /nxtOSEK/ecrobot/../ecrobot/libnxtway_gs_balancer.a(balancer.o)
 .bss.ud_theta_ref
                0x00204a84        0x4 /nxtOSEK/ecrobot/../ecrobot/libnxtway_gs_balancer.a(balancer.o)
 .bss.ud_theta_lpf
                0x00204a88        0x4 /nxtOSEK/ecrobot/../ecrobot/libnxtway_gs_balancer.a(balancer.o)
 .bss.ud_psi    0x00204a8c        0x4 /nxtOSEK/ecrobot/../ecrobot/libnxtway_gs_balancer.a(balancer.o)
 .bss.ud_err_theta
                0x00204a90        0x4 /nxtOSEK/ecrobot/../ecrobot/libnxtway_gs_balancer.a(balancer.o)
                0x00204aa0                . = ALIGN (0x10)
 *fill*         0x00204a94        0xc 00
                0x00204aa0                __bss_end__ = .
 COMMON         0x00204aa0        0x2 build/kernel/interrupt.o
                0x00204aa0                runisr
                0x00204aa1                sus_all_cnt
 *fill*         0x00204aa2        0x2 00
 COMMON         0x00204aa4       0x10 build/kernel/osctl.o
                0x00204aa4                callevel
                0x00204aa5                _errorhook_svcid
                0x00204aa6                appmode
                0x00204aa8                _errorhook_par1
                0x00204aac                _errorhook_par3
                0x00204ab0                _errorhook_par2
 COMMON         0x00204ab4        0x3 build/kernel/task.o
                0x00204ab4                runtsk
                0x00204ab5                schedtsk
                0x00204ab6                nextpri
 *fill*         0x00204ab7        0x1 00
 COMMON         0x00204ab8       0x60 build/./kernel_cfg.o
                0x00204ab8                tcb_waievt
                0x00204abc                rescb_prevpri
                0x00204abd                almcb_prev
                0x00204ac1                tcb_lastres
                0x00204ac4                almcb_almval
                0x00204ad4                tcxb_pc
                0x00204ae0                tcb_next
                0x00204ae3                tcb_curpri
                0x00204ae6                tcb_tstat
                0x00204ae9                isrcb_lastres
                0x00204aea                cntcb_almque
                0x00204aeb                rescb_prevres
                0x00204aec                tcb_actcnt
                0x00204af0                tcb_curevt
                0x00204af4                almcb_cycle
                0x00204b04                tcxb_sp
                0x00204b10                almcb_next
                0x00204b14                cntcb_curval
 COMMON         0x00204b18       0x44 /nxtOSEK/ecrobot/../ecrobot/libecrobot.a(uart.oram)
                0x00204b18                uart
 COMMON         0x00204b5c        0x4 /nxtOSEK/ecrobot/../ecrobot/libecrobot.a(data_abort.oram)
                0x00204b5c                data_abort_pc
 COMMON         0x00204b60        0x8 /nxtOSEK/ecrobot/../ecrobot/libecrobot.a(display.oram)
                0x00204b60                display_x
                0x00204b64                display_y
 COMMON         0x00204b68      0x31c /nxtOSEK/ecrobot/../ecrobot/libecrobot.a(sound.oram)
                0x00204b68                sample
                0x00203650                __bss_start__ = ADDR (.bss)
                0x00204e84                __bss_end__ = (ADDR (.bss) + SIZEOF (.bss))
                0x00204e84                PROVIDE (end, .)

.heap_area      0x00204e84     0xacf4
                0x0020fb78                . = (. + (0x20fb78 - end))
 *fill*         0x00204e84     0xacf4 00

.stack          0x0020fb78      0x488
                0x0020fbf8                . = (. + 0x80)
 *fill*         0x0020fb78       0x80 00
                0x0020fc00                . = ALIGN (0x10)
 *fill*         0x0020fbf8        0x8 00
                0x0020fc00                __irq_stack__ = .
                0x0020fc00                __system_stack_bottom__ = .
                0x00210000                . = (. + 0x400)
 *fill*         0x0020fc00      0x400 00
                0x00210000                . = ALIGN (0x10)
                0x00210000                __system_stack__ = .
                0x00210000                __system_stack_top__ = .
                0x0020fb78                __stack_start__ = ADDR (.stack)
                0x00210000                __stack_end__ = (ADDR (.stack) + SIZEOF (.stack))
OUTPUT(Runner2_rom.elf elf32-littlearm)

.comment        0x00000000      0x45c
 .comment       0x00000000       0x12 build/kernel/alarm.o
 .comment       0x00000012       0x12 build/kernel/event.o
 .comment       0x00000024       0x12 build/kernel/interrupt.o
 .comment       0x00000036       0x12 build/kernel/osctl.o
 .comment       0x00000048       0x12 build/kernel/resource.o
 .comment       0x0000005a       0x12 build/kernel/task.o
 .comment       0x0000006c       0x12 build/kernel/task_manage.o
 .comment       0x0000007e       0x12 build/config/at91sam7s-gnu/cpu_config.o
 .comment       0x00000090       0x12 build/config/at91sam7s-gnu/lego_nxt/sys_config.o
 .comment       0x000000a2       0x12 build/./kernel_cfg.o
 .comment       0x000000b4       0x12 build/syscalls.o
 .comment       0x000000c6       0x12 build/ecrobot_bluetooth.o
 .comment       0x000000d8       0x12 build/ecrobot_base.o
 .comment       0x000000ea       0x12 build/ecrobot.o
 .comment       0x000000fc       0x12 build/com/balancer_param.o
 .comment       0x0000010e       0x12 build/controller/Runner.o
 .comment       0x00000120       0x12 build/controller/Monitor.o
 .comment       0x00000132       0x12 build/controller/RunActions.o
 .comment       0x00000144       0x12 build/controller/CalibrateActions.o
 .comment       0x00000156       0x12 build/unit/BumperUnit.o
 .comment       0x00000168       0x12 build/unit/LineMonitorUnit.o
 .comment       0x0000017a       0x12 build/unit/DisplayUnit.o
 .comment       0x0000018c       0x12 build/unit/HornUnit.o
 .comment       0x0000019e       0x12 build/unit/TimerUnit.o
 .comment       0x000001b0       0x12 build/unit/CommunicationUnit.o
 .comment       0x000001c2       0x12 build/unit/BalancerUnit.o
 .comment       0x000001d4       0x12 build/unit/BlockMonitorUnit.o
 .comment       0x000001e6       0x12 build/controller/initDevice.o
 .comment       0x000001f8       0x12 build/syslib/at91sam7s-gnu/lego_nxt/hw_sys_timer.oram
 .comment       0x0000020a       0x12 /nxtOSEK/ecrobot/../ecrobot/libecrobot.a(ecrobot_HiTechnic.o)
 .comment       0x0000021c       0x12 /nxtOSEK/ecrobot/../ecrobot/libecrobot.a(ecrobot_interface.o)
 .comment       0x0000022e       0x12 /nxtOSEK/ecrobot/../ecrobot/libecrobot.a(colorsensor.o)
 .comment       0x00000240       0x12 /nxtOSEK/ecrobot/../ecrobot/libecrobot.a(uart.oram)
 .comment       0x00000252       0x12 /nxtOSEK/ecrobot/../ecrobot/libecrobot.a(systick.oram)
 .comment       0x00000264       0x12 /nxtOSEK/ecrobot/../ecrobot/libecrobot.a(byte_fifo.oram)
 .comment       0x00000276       0x12 /nxtOSEK/ecrobot/../ecrobot/libecrobot.a(aic.oram)
 .comment       0x00000288       0x12 /nxtOSEK/ecrobot/../ecrobot/libecrobot.a(udp.oram)
 .comment       0x0000029a       0x12 /nxtOSEK/ecrobot/../ecrobot/libecrobot.a(twi.oram)
 .comment       0x000002ac       0x12 /nxtOSEK/ecrobot/../ecrobot/libecrobot.a(nxt_spi.oram)
 .comment       0x000002be       0x12 /nxtOSEK/ecrobot/../ecrobot/libecrobot.a(nxt_motors.oram)
 .comment       0x000002d0       0x12 /nxtOSEK/ecrobot/../ecrobot/libecrobot.a(data_abort.oram)
 .comment       0x000002e2       0x12 /nxtOSEK/ecrobot/../ecrobot/libecrobot.a(display.oram)
 .comment       0x000002f4       0x12 /nxtOSEK/ecrobot/../ecrobot/libecrobot.a(i2c.oram)
 .comment       0x00000306       0x12 /nxtOSEK/ecrobot/../ecrobot/libecrobot.a(sound.oram)
 .comment       0x00000318       0x12 /nxtOSEK/ecrobot/../ecrobot/libecrobot.a(bt.oram)
 .comment       0x0000032a       0x12 /nxtOSEK/ecrobot/../ecrobot/libecrobot.a(nxt_avr.oram)
 .comment       0x0000033c       0x12 /nxtOSEK/ecrobot/../ecrobot/libecrobot.a(sensors.oram)
 .comment       0x0000034e       0x12 /nxtOSEK/ecrobot/../ecrobot/libecrobot.a(sensors1.oram)
 .comment       0x00000360       0x12 /nxtOSEK/ecrobot/../ecrobot/libecrobot.a(nxt_lcd.oram)
 .comment       0x00000372       0x12 /nxtOSEK/ecrobot/../ecrobot/libecrobot.a(flash_loader.oram)
 .comment       0x00000384       0x12 /nxtOSEK/ecrobot/../ecrobot/libecrobot.a(ecrobot_usb.o)
 .comment       0x00000396       0x12 /nxtOSEK/ecrobot/../ecrobot/libecrobot.a(flashprog.oram)
 .comment       0x000003a8       0x12 /nxtOSEK/ecrobot/../ecrobot/libnxtway_gs_balancer.a(balancer.o)
 .comment       0x000003ba       0x12 /cygdrive/C/cygwin/GNUARM/bin/../lib/gcc/arm-elf/4.0.2/thumb/interwork/libgcc.a(_muldi3.o)
 .comment       0x000003cc       0x12 /cygdrive/C/cygwin/GNUARM/bin/../lib/gcc/arm-elf/4.0.2/thumb/interwork/libgcc.a(_divdi3.o)
 .comment       0x000003de       0x12 /cygdrive/C/cygwin/GNUARM/bin/../lib/gcc/arm-elf/4.0.2/thumb/interwork/libgcc.a(_clz.o)
 .comment       0x000003f0       0x12 /cygdrive/C/cygwin/GNUARM/bin/../lib/gcc/arm-elf/4.0.2/../../../../arm-elf/lib/thumb/interwork/libc.a(memcpy.o)
 .comment       0x00000402       0x12 /cygdrive/C/cygwin/GNUARM/bin/../lib/gcc/arm-elf/4.0.2/../../../../arm-elf/lib/thumb/interwork/libc.a(memset.o)
 .comment       0x00000414       0x12 /cygdrive/C/cygwin/GNUARM/bin/../lib/gcc/arm-elf/4.0.2/../../../../arm-elf/lib/thumb/interwork/libc.a(strcmp.o)
 .comment       0x00000426       0x12 /cygdrive/C/cygwin/GNUARM/bin/../lib/gcc/arm-elf/4.0.2/../../../../arm-elf/lib/thumb/interwork/libc.a(strcpy.o)
 .comment       0x00000438       0x12 /cygdrive/C/cygwin/GNUARM/bin/../lib/gcc/arm-elf/4.0.2/../../../../arm-elf/lib/thumb/interwork/libc.a(strlen.o)
 .comment       0x0000044a       0x12 /cygdrive/C/cygwin/GNUARM/bin/../lib/gcc/arm-elf/4.0.2/../../../../arm-elf/lib/thumb/interwork/libc.a(strncpy.o)

.debug_line     0x00000000      0xea8
 .debug_line    0x00000000       0x70 /cygdrive/C/cygwin/GNUARM/bin/../lib/gcc/arm-elf/4.0.2/thumb/interwork/libgcc.a(_udivsi3.o)
 .debug_line    0x00000070       0x7c /cygdrive/C/cygwin/GNUARM/bin/../lib/gcc/arm-elf/4.0.2/thumb/interwork/libgcc.a(_divsi3.o)
 .debug_line    0x000000ec       0x68 /cygdrive/C/cygwin/GNUARM/bin/../lib/gcc/arm-elf/4.0.2/thumb/interwork/libgcc.a(_umodsi3.o)
 .debug_line    0x00000154       0x71 /cygdrive/C/cygwin/GNUARM/bin/../lib/gcc/arm-elf/4.0.2/thumb/interwork/libgcc.a(_modsi3.o)
 .debug_line    0x000001c5       0x5a /cygdrive/C/cygwin/GNUARM/bin/../lib/gcc/arm-elf/4.0.2/thumb/interwork/libgcc.a(_dvmd_tls.o)
 .debug_line    0x0000021f      0x162 /cygdrive/C/cygwin/GNUARM/bin/../lib/gcc/arm-elf/4.0.2/thumb/interwork/libgcc.a(_addsubdf3.o)
 .debug_line    0x00000381      0x177 /cygdrive/C/cygwin/GNUARM/bin/../lib/gcc/arm-elf/4.0.2/thumb/interwork/libgcc.a(_muldivdf3.o)
 .debug_line    0x000004f8       0xa4 /cygdrive/C/cygwin/GNUARM/bin/../lib/gcc/arm-elf/4.0.2/thumb/interwork/libgcc.a(_cmpdf2.o)
 .debug_line    0x0000059c      0x110 /cygdrive/C/cygwin/GNUARM/bin/../lib/gcc/arm-elf/4.0.2/thumb/interwork/libgcc.a(_addsubsf3.o)
 .debug_line    0x000006ac      0x11a /cygdrive/C/cygwin/GNUARM/bin/../lib/gcc/arm-elf/4.0.2/thumb/interwork/libgcc.a(_muldivsf3.o)
 .debug_line    0x000007c6       0x98 /cygdrive/C/cygwin/GNUARM/bin/../lib/gcc/arm-elf/4.0.2/thumb/interwork/libgcc.a(_cmpsf2.o)
 .debug_line    0x0000085e       0x6f /cygdrive/C/cygwin/GNUARM/bin/../lib/gcc/arm-elf/4.0.2/thumb/interwork/libgcc.a(_fixsfsi.o)
 .debug_line    0x000008cd       0x61 /cygdrive/C/cygwin/GNUARM/bin/../lib/gcc/arm-elf/4.0.2/thumb/interwork/libgcc.a(_muldi3.o)
 .debug_line    0x0000092e      0x122 /cygdrive/C/cygwin/GNUARM/bin/../lib/gcc/arm-elf/4.0.2/thumb/interwork/libgcc.a(_divdi3.o)
 .debug_line    0x00000a50       0x48 /cygdrive/C/cygwin/GNUARM/bin/../lib/gcc/arm-elf/4.0.2/thumb/interwork/libgcc.a(_clz.o)
 .debug_line    0x00000a98       0xc3 /cygdrive/C/cygwin/GNUARM/bin/../lib/gcc/arm-elf/4.0.2/../../../../arm-elf/lib/thumb/interwork/libc.a(memcpy.o)
 .debug_line    0x00000b5b       0xd4 /cygdrive/C/cygwin/GNUARM/bin/../lib/gcc/arm-elf/4.0.2/../../../../arm-elf/lib/thumb/interwork/libc.a(memset.o)
 .debug_line    0x00000c2f       0x88 /cygdrive/C/cygwin/GNUARM/bin/../lib/gcc/arm-elf/4.0.2/../../../../arm-elf/lib/thumb/interwork/libc.a(strcmp.o)
 .debug_line    0x00000cb7       0x80 /cygdrive/C/cygwin/GNUARM/bin/../lib/gcc/arm-elf/4.0.2/../../../../arm-elf/lib/thumb/interwork/libc.a(strcpy.o)
 .debug_line    0x00000d37       0xaf /cygdrive/C/cygwin/GNUARM/bin/../lib/gcc/arm-elf/4.0.2/../../../../arm-elf/lib/thumb/interwork/libc.a(strlen.o)
 .debug_line    0x00000de6       0xc2 /cygdrive/C/cygwin/GNUARM/bin/../lib/gcc/arm-elf/4.0.2/../../../../arm-elf/lib/thumb/interwork/libc.a(strncpy.o)

.debug_info     0x00000000     0x151e
 .debug_info    0x00000000       0x6a /cygdrive/C/cygwin/GNUARM/bin/../lib/gcc/arm-elf/4.0.2/thumb/interwork/libgcc.a(_udivsi3.o)
 .debug_info    0x0000006a       0x6a /cygdrive/C/cygwin/GNUARM/bin/../lib/gcc/arm-elf/4.0.2/thumb/interwork/libgcc.a(_divsi3.o)
 .debug_info    0x000000d4       0x6a /cygdrive/C/cygwin/GNUARM/bin/../lib/gcc/arm-elf/4.0.2/thumb/interwork/libgcc.a(_umodsi3.o)
 .debug_info    0x0000013e       0x6a /cygdrive/C/cygwin/GNUARM/bin/../lib/gcc/arm-elf/4.0.2/thumb/interwork/libgcc.a(_modsi3.o)
 .debug_info    0x000001a8       0x6a /cygdrive/C/cygwin/GNUARM/bin/../lib/gcc/arm-elf/4.0.2/thumb/interwork/libgcc.a(_dvmd_tls.o)
 .debug_info    0x00000212       0x69 /cygdrive/C/cygwin/GNUARM/bin/../lib/gcc/arm-elf/4.0.2/thumb/interwork/libgcc.a(_addsubdf3.o)
 .debug_info    0x0000027b       0x69 /cygdrive/C/cygwin/GNUARM/bin/../lib/gcc/arm-elf/4.0.2/thumb/interwork/libgcc.a(_muldivdf3.o)
 .debug_info    0x000002e4       0x69 /cygdrive/C/cygwin/GNUARM/bin/../lib/gcc/arm-elf/4.0.2/thumb/interwork/libgcc.a(_cmpdf2.o)
 .debug_info    0x0000034d       0x69 /cygdrive/C/cygwin/GNUARM/bin/../lib/gcc/arm-elf/4.0.2/thumb/interwork/libgcc.a(_addsubsf3.o)
 .debug_info    0x000003b6       0x69 /cygdrive/C/cygwin/GNUARM/bin/../lib/gcc/arm-elf/4.0.2/thumb/interwork/libgcc.a(_muldivsf3.o)
 .debug_info    0x0000041f       0x69 /cygdrive/C/cygwin/GNUARM/bin/../lib/gcc/arm-elf/4.0.2/thumb/interwork/libgcc.a(_cmpsf2.o)
 .debug_info    0x00000488       0x69 /cygdrive/C/cygwin/GNUARM/bin/../lib/gcc/arm-elf/4.0.2/thumb/interwork/libgcc.a(_fixsfsi.o)
 .debug_info    0x000004f1      0x20e /cygdrive/C/cygwin/GNUARM/bin/../lib/gcc/arm-elf/4.0.2/thumb/interwork/libgcc.a(_muldi3.o)
 .debug_info    0x000006ff      0x758 /cygdrive/C/cygwin/GNUARM/bin/../lib/gcc/arm-elf/4.0.2/thumb/interwork/libgcc.a(_divdi3.o)
 .debug_info    0x00000e57       0xc9 /cygdrive/C/cygwin/GNUARM/bin/../lib/gcc/arm-elf/4.0.2/thumb/interwork/libgcc.a(_clz.o)
 .debug_info    0x00000f20      0x10d /cygdrive/C/cygwin/GNUARM/bin/../lib/gcc/arm-elf/4.0.2/../../../../arm-elf/lib/thumb/interwork/libc.a(memcpy.o)
 .debug_info    0x0000102d      0x111 /cygdrive/C/cygwin/GNUARM/bin/../lib/gcc/arm-elf/4.0.2/../../../../arm-elf/lib/thumb/interwork/libc.a(memset.o)
 .debug_info    0x0000113e       0xd9 /cygdrive/C/cygwin/GNUARM/bin/../lib/gcc/arm-elf/4.0.2/../../../../arm-elf/lib/thumb/interwork/libc.a(strcmp.o)
 .debug_info    0x00001217      0x10c /cygdrive/C/cygwin/GNUARM/bin/../lib/gcc/arm-elf/4.0.2/../../../../arm-elf/lib/thumb/interwork/libc.a(strcpy.o)
 .debug_info    0x00001323       0xd5 /cygdrive/C/cygwin/GNUARM/bin/../lib/gcc/arm-elf/4.0.2/../../../../arm-elf/lib/thumb/interwork/libc.a(strlen.o)
 .debug_info    0x000013f8      0x126 /cygdrive/C/cygwin/GNUARM/bin/../lib/gcc/arm-elf/4.0.2/../../../../arm-elf/lib/thumb/interwork/libc.a(strncpy.o)

.debug_abbrev   0x00000000      0x6ed
 .debug_abbrev  0x00000000       0x14 /cygdrive/C/cygwin/GNUARM/bin/../lib/gcc/arm-elf/4.0.2/thumb/interwork/libgcc.a(_udivsi3.o)
 .debug_abbrev  0x00000014       0x14 /cygdrive/C/cygwin/GNUARM/bin/../lib/gcc/arm-elf/4.0.2/thumb/interwork/libgcc.a(_divsi3.o)
 .debug_abbrev  0x00000028       0x14 /cygdrive/C/cygwin/GNUARM/bin/../lib/gcc/arm-elf/4.0.2/thumb/interwork/libgcc.a(_umodsi3.o)
 .debug_abbrev  0x0000003c       0x14 /cygdrive/C/cygwin/GNUARM/bin/../lib/gcc/arm-elf/4.0.2/thumb/interwork/libgcc.a(_modsi3.o)
 .debug_abbrev  0x00000050       0x14 /cygdrive/C/cygwin/GNUARM/bin/../lib/gcc/arm-elf/4.0.2/thumb/interwork/libgcc.a(_dvmd_tls.o)
 .debug_abbrev  0x00000064       0x14 /cygdrive/C/cygwin/GNUARM/bin/../lib/gcc/arm-elf/4.0.2/thumb/interwork/libgcc.a(_addsubdf3.o)
 .debug_abbrev  0x00000078       0x14 /cygdrive/C/cygwin/GNUARM/bin/../lib/gcc/arm-elf/4.0.2/thumb/interwork/libgcc.a(_muldivdf3.o)
 .debug_abbrev  0x0000008c       0x14 /cygdrive/C/cygwin/GNUARM/bin/../lib/gcc/arm-elf/4.0.2/thumb/interwork/libgcc.a(_cmpdf2.o)
 .debug_abbrev  0x000000a0       0x14 /cygdrive/C/cygwin/GNUARM/bin/../lib/gcc/arm-elf/4.0.2/thumb/interwork/libgcc.a(_addsubsf3.o)
 .debug_abbrev  0x000000b4       0x14 /cygdrive/C/cygwin/GNUARM/bin/../lib/gcc/arm-elf/4.0.2/thumb/interwork/libgcc.a(_muldivsf3.o)
 .debug_abbrev  0x000000c8       0x14 /cygdrive/C/cygwin/GNUARM/bin/../lib/gcc/arm-elf/4.0.2/thumb/interwork/libgcc.a(_cmpsf2.o)
 .debug_abbrev  0x000000dc       0x14 /cygdrive/C/cygwin/GNUARM/bin/../lib/gcc/arm-elf/4.0.2/thumb/interwork/libgcc.a(_fixsfsi.o)
 .debug_abbrev  0x000000f0       0xec /cygdrive/C/cygwin/GNUARM/bin/../lib/gcc/arm-elf/4.0.2/thumb/interwork/libgcc.a(_muldi3.o)
 .debug_abbrev  0x000001dc      0x174 /cygdrive/C/cygwin/GNUARM/bin/../lib/gcc/arm-elf/4.0.2/thumb/interwork/libgcc.a(_divdi3.o)
 .debug_abbrev  0x00000350       0x61 /cygdrive/C/cygwin/GNUARM/bin/../lib/gcc/arm-elf/4.0.2/thumb/interwork/libgcc.a(_clz.o)
 .debug_abbrev  0x000003b1       0x99 /cygdrive/C/cygwin/GNUARM/bin/../lib/gcc/arm-elf/4.0.2/../../../../arm-elf/lib/thumb/interwork/libc.a(memcpy.o)
 .debug_abbrev  0x0000044a       0x9a /cygdrive/C/cygwin/GNUARM/bin/../lib/gcc/arm-elf/4.0.2/../../../../arm-elf/lib/thumb/interwork/libc.a(memset.o)
 .debug_abbrev  0x000004e4       0x71 /cygdrive/C/cygwin/GNUARM/bin/../lib/gcc/arm-elf/4.0.2/../../../../arm-elf/lib/thumb/interwork/libc.a(strcmp.o)
 .debug_abbrev  0x00000555       0x80 /cygdrive/C/cygwin/GNUARM/bin/../lib/gcc/arm-elf/4.0.2/../../../../arm-elf/lib/thumb/interwork/libc.a(strcpy.o)
 .debug_abbrev  0x000005d5       0x8b /cygdrive/C/cygwin/GNUARM/bin/../lib/gcc/arm-elf/4.0.2/../../../../arm-elf/lib/thumb/interwork/libc.a(strlen.o)
 .debug_abbrev  0x00000660       0x8d /cygdrive/C/cygwin/GNUARM/bin/../lib/gcc/arm-elf/4.0.2/../../../../arm-elf/lib/thumb/interwork/libc.a(strncpy.o)

.debug_aranges  0x00000000      0x280
 .debug_aranges
                0x00000000       0x20 /cygdrive/C/cygwin/GNUARM/bin/../lib/gcc/arm-elf/4.0.2/thumb/interwork/libgcc.a(_udivsi3.o)
 .debug_aranges
                0x00000020       0x20 /cygdrive/C/cygwin/GNUARM/bin/../lib/gcc/arm-elf/4.0.2/thumb/interwork/libgcc.a(_divsi3.o)
 .debug_aranges
                0x00000040       0x20 /cygdrive/C/cygwin/GNUARM/bin/../lib/gcc/arm-elf/4.0.2/thumb/interwork/libgcc.a(_umodsi3.o)
 .debug_aranges
                0x00000060       0x20 /cygdrive/C/cygwin/GNUARM/bin/../lib/gcc/arm-elf/4.0.2/thumb/interwork/libgcc.a(_modsi3.o)
 .debug_aranges
                0x00000080       0x20 /cygdrive/C/cygwin/GNUARM/bin/../lib/gcc/arm-elf/4.0.2/thumb/interwork/libgcc.a(_dvmd_tls.o)
 .debug_aranges
                0x000000a0       0x20 /cygdrive/C/cygwin/GNUARM/bin/../lib/gcc/arm-elf/4.0.2/thumb/interwork/libgcc.a(_addsubdf3.o)
 .debug_aranges
                0x000000c0       0x20 /cygdrive/C/cygwin/GNUARM/bin/../lib/gcc/arm-elf/4.0.2/thumb/interwork/libgcc.a(_muldivdf3.o)
 .debug_aranges
                0x000000e0       0x20 /cygdrive/C/cygwin/GNUARM/bin/../lib/gcc/arm-elf/4.0.2/thumb/interwork/libgcc.a(_cmpdf2.o)
 .debug_aranges
                0x00000100       0x20 /cygdrive/C/cygwin/GNUARM/bin/../lib/gcc/arm-elf/4.0.2/thumb/interwork/libgcc.a(_addsubsf3.o)
 .debug_aranges
                0x00000120       0x20 /cygdrive/C/cygwin/GNUARM/bin/../lib/gcc/arm-elf/4.0.2/thumb/interwork/libgcc.a(_muldivsf3.o)
 .debug_aranges
                0x00000140       0x20 /cygdrive/C/cygwin/GNUARM/bin/../lib/gcc/arm-elf/4.0.2/thumb/interwork/libgcc.a(_cmpsf2.o)
 .debug_aranges
                0x00000160       0x20 /cygdrive/C/cygwin/GNUARM/bin/../lib/gcc/arm-elf/4.0.2/thumb/interwork/libgcc.a(_fixsfsi.o)
 .debug_aranges
                0x00000180       0x20 /cygdrive/C/cygwin/GNUARM/bin/../lib/gcc/arm-elf/4.0.2/thumb/interwork/libgcc.a(_muldi3.o)
 .debug_aranges
                0x000001a0       0x20 /cygdrive/C/cygwin/GNUARM/bin/../lib/gcc/arm-elf/4.0.2/thumb/interwork/libgcc.a(_divdi3.o)
 .debug_aranges
                0x000001c0       0x20 /cygdrive/C/cygwin/GNUARM/bin/../lib/gcc/arm-elf/4.0.2/../../../../arm-elf/lib/thumb/interwork/libc.a(memcpy.o)
 .debug_aranges
                0x000001e0       0x20 /cygdrive/C/cygwin/GNUARM/bin/../lib/gcc/arm-elf/4.0.2/../../../../arm-elf/lib/thumb/interwork/libc.a(memset.o)
 .debug_aranges
                0x00000200       0x20 /cygdrive/C/cygwin/GNUARM/bin/../lib/gcc/arm-elf/4.0.2/../../../../arm-elf/lib/thumb/interwork/libc.a(strcmp.o)
 .debug_aranges
                0x00000220       0x20 /cygdrive/C/cygwin/GNUARM/bin/../lib/gcc/arm-elf/4.0.2/../../../../arm-elf/lib/thumb/interwork/libc.a(strcpy.o)
 .debug_aranges
                0x00000240       0x20 /cygdrive/C/cygwin/GNUARM/bin/../lib/gcc/arm-elf/4.0.2/../../../../arm-elf/lib/thumb/interwork/libc.a(strlen.o)
 .debug_aranges
                0x00000260       0x20 /cygdrive/C/cygwin/GNUARM/bin/../lib/gcc/arm-elf/4.0.2/../../../../arm-elf/lib/thumb/interwork/libc.a(strncpy.o)

.debug_frame    0x00000000      0x180
 .debug_frame   0x00000000       0x38 /cygdrive/C/cygwin/GNUARM/bin/../lib/gcc/arm-elf/4.0.2/thumb/interwork/libgcc.a(_muldi3.o)
 .debug_frame   0x00000038       0x3c /cygdrive/C/cygwin/GNUARM/bin/../lib/gcc/arm-elf/4.0.2/thumb/interwork/libgcc.a(_divdi3.o)
 .debug_frame   0x00000074       0x2c /cygdrive/C/cygwin/GNUARM/bin/../lib/gcc/arm-elf/4.0.2/../../../../arm-elf/lib/thumb/interwork/libc.a(memcpy.o)
 .debug_frame   0x000000a0       0x2c /cygdrive/C/cygwin/GNUARM/bin/../lib/gcc/arm-elf/4.0.2/../../../../arm-elf/lib/thumb/interwork/libc.a(memset.o)
 .debug_frame   0x000000cc       0x2c /cygdrive/C/cygwin/GNUARM/bin/../lib/gcc/arm-elf/4.0.2/../../../../arm-elf/lib/thumb/interwork/libc.a(strcmp.o)
 .debug_frame   0x000000f8       0x2c /cygdrive/C/cygwin/GNUARM/bin/../lib/gcc/arm-elf/4.0.2/../../../../arm-elf/lib/thumb/interwork/libc.a(strcpy.o)
 .debug_frame   0x00000124       0x2c /cygdrive/C/cygwin/GNUARM/bin/../lib/gcc/arm-elf/4.0.2/../../../../arm-elf/lib/thumb/interwork/libc.a(strlen.o)
 .debug_frame   0x00000150       0x30 /cygdrive/C/cygwin/GNUARM/bin/../lib/gcc/arm-elf/4.0.2/../../../../arm-elf/lib/thumb/interwork/libc.a(strncpy.o)

.debug_loc      0x00000000     0x13c0
 .debug_loc     0x00000000      0x156 /cygdrive/C/cygwin/GNUARM/bin/../lib/gcc/arm-elf/4.0.2/thumb/interwork/libgcc.a(_muldi3.o)
 .debug_loc     0x00000156      0xd45 /cygdrive/C/cygwin/GNUARM/bin/../lib/gcc/arm-elf/4.0.2/thumb/interwork/libgcc.a(_divdi3.o)
 .debug_loc     0x00000e9b      0x127 /cygdrive/C/cygwin/GNUARM/bin/../lib/gcc/arm-elf/4.0.2/../../../../arm-elf/lib/thumb/interwork/libc.a(memcpy.o)
 .debug_loc     0x00000fc2      0x12a /cygdrive/C/cygwin/GNUARM/bin/../lib/gcc/arm-elf/4.0.2/../../../../arm-elf/lib/thumb/interwork/libc.a(memset.o)
 .debug_loc     0x000010ec       0x8e /cygdrive/C/cygwin/GNUARM/bin/../lib/gcc/arm-elf/4.0.2/../../../../arm-elf/lib/thumb/interwork/libc.a(strcmp.o)
 .debug_loc     0x0000117a       0xb4 /cygdrive/C/cygwin/GNUARM/bin/../lib/gcc/arm-elf/4.0.2/../../../../arm-elf/lib/thumb/interwork/libc.a(strcpy.o)
 .debug_loc     0x0000122e       0x3c /cygdrive/C/cygwin/GNUARM/bin/../lib/gcc/arm-elf/4.0.2/../../../../arm-elf/lib/thumb/interwork/libc.a(strlen.o)
 .debug_loc     0x0000126a      0x156 /cygdrive/C/cygwin/GNUARM/bin/../lib/gcc/arm-elf/4.0.2/../../../../arm-elf/lib/thumb/interwork/libc.a(strncpy.o)

.debug_pubnames
                0x00000000      0x10d
 .debug_pubnames
                0x00000000       0x1f /cygdrive/C/cygwin/GNUARM/bin/../lib/gcc/arm-elf/4.0.2/thumb/interwork/libgcc.a(_muldi3.o)
 .debug_pubnames
                0x0000001f       0x1f /cygdrive/C/cygwin/GNUARM/bin/../lib/gcc/arm-elf/4.0.2/thumb/interwork/libgcc.a(_divdi3.o)
 .debug_pubnames
                0x0000003e       0x20 /cygdrive/C/cygwin/GNUARM/bin/../lib/gcc/arm-elf/4.0.2/thumb/interwork/libgcc.a(_clz.o)
 .debug_pubnames
                0x0000005e       0x1d /cygdrive/C/cygwin/GNUARM/bin/../lib/gcc/arm-elf/4.0.2/../../../../arm-elf/lib/thumb/interwork/libc.a(memcpy.o)
 .debug_pubnames
                0x0000007b       0x1d /cygdrive/C/cygwin/GNUARM/bin/../lib/gcc/arm-elf/4.0.2/../../../../arm-elf/lib/thumb/interwork/libc.a(memset.o)
 .debug_pubnames
                0x00000098       0x1d /cygdrive/C/cygwin/GNUARM/bin/../lib/gcc/arm-elf/4.0.2/../../../../arm-elf/lib/thumb/interwork/libc.a(strcmp.o)
 .debug_pubnames
                0x000000b5       0x1d /cygdrive/C/cygwin/GNUARM/bin/../lib/gcc/arm-elf/4.0.2/../../../../arm-elf/lib/thumb/interwork/libc.a(strcpy.o)
 .debug_pubnames
                0x000000d2       0x1d /cygdrive/C/cygwin/GNUARM/bin/../lib/gcc/arm-elf/4.0.2/../../../../arm-elf/lib/thumb/interwork/libc.a(strlen.o)
 .debug_pubnames
                0x000000ef       0x1e /cygdrive/C/cygwin/GNUARM/bin/../lib/gcc/arm-elf/4.0.2/../../../../arm-elf/lib/thumb/interwork/libc.a(strncpy.o)

.debug_ranges   0x00000000      0x1d8
 .debug_ranges  0x00000000       0x30 /cygdrive/C/cygwin/GNUARM/bin/../lib/gcc/arm-elf/4.0.2/thumb/interwork/libgcc.a(_muldi3.o)
 .debug_ranges  0x00000030      0x1a8 /cygdrive/C/cygwin/GNUARM/bin/../lib/gcc/arm-elf/4.0.2/thumb/interwork/libgcc.a(_divdi3.o)

.debug_str      0x00000000      0x38b
 .debug_str     0x00000000       0xfb /cygdrive/C/cygwin/GNUARM/bin/../lib/gcc/arm-elf/4.0.2/thumb/interwork/libgcc.a(_muldi3.o)
                                0x14f (size before relaxing)
 .debug_str     0x000000fb       0x5d /cygdrive/C/cygwin/GNUARM/bin/../lib/gcc/arm-elf/4.0.2/thumb/interwork/libgcc.a(_divdi3.o)
                                0x1a3 (size before relaxing)
 .debug_str     0x00000158        0x0 /cygdrive/C/cygwin/GNUARM/bin/../lib/gcc/arm-elf/4.0.2/thumb/interwork/libgcc.a(_clz.o)
                                0x104 (size before relaxing)
 .debug_str     0x00000158       0xb3 /cygdrive/C/cygwin/GNUARM/bin/../lib/gcc/arm-elf/4.0.2/../../../../arm-elf/lib/thumb/interwork/libc.a(memcpy.o)
                                 0xdf (size before relaxing)
 .debug_str     0x0000020b       0x5a /cygdrive/C/cygwin/GNUARM/bin/../lib/gcc/arm-elf/4.0.2/../../../../arm-elf/lib/thumb/interwork/libc.a(memset.o)
                                0x129 (size before relaxing)
 .debug_str     0x00000265       0x46 /cygdrive/C/cygwin/GNUARM/bin/../lib/gcc/arm-elf/4.0.2/../../../../arm-elf/lib/thumb/interwork/libc.a(strcmp.o)
                                0x10e (size before relaxing)
 .debug_str     0x000002ab       0x46 /cygdrive/C/cygwin/GNUARM/bin/../lib/gcc/arm-elf/4.0.2/../../../../arm-elf/lib/thumb/interwork/libc.a(strcpy.o)
                                0x130 (size before relaxing)
 .debug_str     0x000002f1       0x4c /cygdrive/C/cygwin/GNUARM/bin/../lib/gcc/arm-elf/4.0.2/../../../../arm-elf/lib/thumb/interwork/libc.a(strlen.o)
                                0x128 (size before relaxing)
 .debug_str     0x0000033d       0x4e /cygdrive/C/cygwin/GNUARM/bin/../lib/gcc/arm-elf/4.0.2/../../../../arm-elf/lib/thumb/interwork/libc.a(strncpy.o)
                                0x13f (size before relaxing)

Cross Reference Table

Symbol                                            File
A_D                                               build/com/balancer_param.o
                                                  /nxtOSEK/ecrobot/../ecrobot/libnxtway_gs_balancer.a(balancer.o)
A_R                                               build/com/balancer_param.o
                                                  /nxtOSEK/ecrobot/../ecrobot/libnxtway_gs_balancer.a(balancer.o)
ActionTask                                        build/./kernel_cfg.o
ActivateTask                                      build/kernel/task_manage.o
                                                  build/./kernel_cfg.o
AlarmMainCountTimer                               build/unit/TimerUnit.o
                                                  build/./kernel_cfg.o
BATTERY_GAIN                                      build/com/balancer_param.o
                                                  /nxtOSEK/ecrobot/../ecrobot/libnxtway_gs_balancer.a(balancer.o)
BATTERY_OFFSET                                    build/com/balancer_param.o
                                                  /nxtOSEK/ecrobot/../ecrobot/libnxtway_gs_balancer.a(balancer.o)
BLNU_angle_turn_left                              build/unit/BalancerUnit.o
BLNU_angle_turn_right                             build/unit/BalancerUnit.o
BLNU_backward                                     build/unit/BalancerUnit.o
BLNU_balance_control                              build/unit/BalancerUnit.o
BLNU_balance_start                                build/unit/BalancerUnit.o
                                                  build/controller/Runner.o
BLNU_forward                                      build/unit/BalancerUnit.o
                                                  build/controller/RunActions.o
BLNU_post                                         build/unit/BalancerUnit.o
                                                  build/controller/CalibrateActions.o
BLNU_pre                                          build/unit/BalancerUnit.o
                                                  build/controller/CalibrateActions.o
BLNU_set_gyro_offset                              build/unit/BalancerUnit.o
                                                  build/controller/CalibrateActions.o
BLNU_stop                                         build/unit/BalancerUnit.o
                                                  build/controller/RunActions.o
BLNU_turn                                         build/unit/BalancerUnit.o
                                                  build/controller/RunActions.o
BLNU_turn_left                                    build/unit/BalancerUnit.o
                                                  build/controller/RunActions.o
BLNU_turn_right                                   build/unit/BalancerUnit.o
                                                  build/controller/RunActions.o
BMU_get_threshold                                 build/unit/BlockMonitorUnit.o
BMU_is_found                                      build/unit/BlockMonitorUnit.o
BMU_post                                          build/unit/BlockMonitorUnit.o
BMU_pre                                           build/unit/BlockMonitorUnit.o
BMU_set_threshold                                 build/unit/BlockMonitorUnit.o
BU_is_clicked                                     build/unit/BumperUnit.o
                                                  build/controller/Runner.o
BU_is_touched                                     build/unit/BumperUnit.o
                                                  build/controller/Runner.o
BU_post                                           build/unit/BumperUnit.o
BU_pre                                            build/unit/BumperUnit.o
BalanceTask                                       build/./kernel_cfg.o
CA_post                                           build/controller/CalibrateActions.o
                                                  build/controller/Runner.o
CA_pre                                            build/controller/CalibrateActions.o
                                                  build/controller/Runner.o
CA_set_threshold                                  build/controller/CalibrateActions.o
                                                  build/controller/Runner.o
CU_get_mode                                       build/unit/CommunicationUnit.o
CU_get_recvMSG                                    build/unit/CommunicationUnit.o
CU_get_sendMSG                                    build/unit/CommunicationUnit.o
CU_is_received                                    build/unit/CommunicationUnit.o
                                                  build/controller/Runner.o
CU_pass                                           build/unit/CommunicationUnit.o
CU_post                                           build/unit/CommunicationUnit.o
                                                  build/controller/Runner.o
CU_pre                                            build/unit/CommunicationUnit.o
                                                  build/controller/Runner.o
CU_send_mail                                      build/unit/CommunicationUnit.o
                                                  build/controller/Runner.o
CU_set_mode                                       build/unit/CommunicationUnit.o
                                                  build/controller/Runner.o
CU_set_recvMSG                                    build/unit/CommunicationUnit.o
                                                  build/controller/Runner.o
CU_set_sendMSG                                    build/unit/CommunicationUnit.o
                                                  build/controller/Runner.o
CancelAlarm                                       build/kernel/alarm.o
ChainTask                                         build/kernel/task_manage.o
ClearEvent                                        build/kernel/event.o
DU_clear                                          build/unit/DisplayUnit.o
DU_show_number                                    build/unit/DisplayUnit.o
                                                  build/controller/Monitor.o
DU_show_string                                    build/unit/DisplayUnit.o
                                                  build/controller/Monitor.o
DisableAllInterrupts                              build/kernel/interrupt.o
DisplayTask                                       build/./kernel_cfg.o
EnableAllInterrupts                               build/kernel/interrupt.o
ErrorHook                                         build/controller/initDevice.o
                                                  build/kernel/osctl.o
GetActiveApplicationMode                          build/kernel/osctl.o
GetAlarm                                          build/kernel/alarm.o
GetAlarmBase                                      build/kernel/alarm.o
GetEvent                                          build/kernel/event.o
GetResource                                       build/kernel/resource.o
GetTaskID                                         build/kernel/task_manage.o
GetTaskState                                      build/kernel/task_manage.o
HU_arrival_sound                                  build/unit/HornUnit.o
HU_confir_sound                                   build/unit/HornUnit.o
HU_error_sound                                    build/unit/HornUnit.o
HU_ok_sound                                       build/unit/HornUnit.o
                                                  build/controller/Monitor.o
HU_warn_sound                                     build/unit/HornUnit.o
K_F                                               build/com/balancer_param.o
                                                  /nxtOSEK/ecrobot/../ecrobot/libnxtway_gs_balancer.a(balancer.o)
K_I                                               build/com/balancer_param.o
                                                  /nxtOSEK/ecrobot/../ecrobot/libnxtway_gs_balancer.a(balancer.o)
K_PHIDOT                                          build/com/balancer_param.o
                                                  /nxtOSEK/ecrobot/../ecrobot/libnxtway_gs_balancer.a(balancer.o)
K_THETADOT                                        build/com/balancer_param.o
                                                  /nxtOSEK/ecrobot/../ecrobot/libnxtway_gs_balancer.a(balancer.o)
LMU_get_black_value                               build/unit/LineMonitorUnit.o
                                                  build/controller/Monitor.o
LMU_get_gray_value                                build/unit/LineMonitorUnit.o
                                                  build/controller/Monitor.o
LMU_get_threshold                                 build/unit/LineMonitorUnit.o
                                                  build/controller/RunActions.o
LMU_get_white_value                               build/unit/LineMonitorUnit.o
                                                  build/controller/Monitor.o
LMU_is_gray                                       build/unit/LineMonitorUnit.o
LMU_is_line_value                                 build/unit/LineMonitorUnit.o
                                                  build/controller/RunActions.o
LMU_is_online                                     build/unit/LineMonitorUnit.o
                                                  build/controller/RunActions.o
LMU_post                                          build/unit/LineMonitorUnit.o
                                                  build/controller/CalibrateActions.o
LMU_pre                                           build/unit/LineMonitorUnit.o
                                                  build/controller/CalibrateActions.o
LMU_set_black_value                               build/unit/LineMonitorUnit.o
                                                  build/controller/CalibrateActions.o
LMU_set_gray_value                                build/unit/LineMonitorUnit.o
                                                  build/controller/CalibrateActions.o
LMU_set_threshold                                 build/unit/LineMonitorUnit.o
                                                  build/controller/CalibrateActions.o
LMU_set_white_value                               build/unit/LineMonitorUnit.o
                                                  build/controller/CalibrateActions.o
M_inform                                          build/controller/Monitor.o
M_post                                            build/controller/Monitor.o
M_pre                                             build/controller/Monitor.o
NXT_COLORSENSOR_PROTOCOLS                         /nxtOSEK/ecrobot/../ecrobot/libecrobot.a(ecrobot_interface.o)
NXT_Entry_Point                                   build/nxt_entry_point.o
                                                  build/nxt_binary_header.o
PostTaskHook                                      build/controller/initDevice.o
                                                  build/config/at91sam7s-gnu/cpu_support.oram
                                                  build/kernel/osctl.o
PreTaskHook                                       build/controller/initDevice.o
                                                  build/config/at91sam7s-gnu/cpu_support.oram
                                                  build/kernel/osctl.o
RA_linetrace                                      build/controller/RunActions.o
RA_linetrace_P                                    build/controller/RunActions.o
RA_post                                           build/controller/RunActions.o
                                                  build/controller/Runner.o
RA_pre                                            build/controller/RunActions.o
                                                  build/controller/Runner.o
RA_stop                                           build/controller/RunActions.o
                                                  build/controller/Runner.o
RA_takeover                                       build/controller/RunActions.o
                                                  build/controller/Runner.o
RA_watch_goal_tracing                             build/controller/RunActions.o
                                                  build/controller/Runner.o
RN_bump_ready                                     build/controller/Runner.o
RN_calibrate                                      build/controller/Runner.o
RN_do_run                                         build/controller/Runner.o
RN_get_state                                      build/controller/Runner.o
                                                  build/controller/Monitor.o
RN_post                                           build/controller/Runner.o
                                                  build/controller/initDevice.o
RN_pre                                            build/controller/Runner.o
                                                  build/controller/initDevice.o
RN_ready                                          build/controller/Runner.o
RN_run                                            build/controller/Runner.o
RN_set_state                                      build/controller/Runner.o
RN_takeover                                       build/controller/Runner.o
ReleaseResource                                   build/kernel/resource.o
ResumeAllInterrupts                               build/kernel/interrupt.o
ResumeOSInterrupts                                build/kernel/interrupt.o
Schedule                                          build/kernel/task_manage.o
SetAbsAlarm                                       build/kernel/alarm.o
SetEvent                                          build/kernel/event.o
SetRelAlarm                                       build/kernel/alarm.o
ShutdownHook                                      build/controller/initDevice.o
                                                  build/kernel/osctl.o
ShutdownOS                                        build/kernel/osctl.o
                                                  build/controller/initDevice.o
SignalCounter                                     build/kernel/alarm.o
                                                  build/controller/initDevice.o
StartOS                                           build/kernel/osctl.o
                                                  build/ecrobot.o
StartupHook                                       build/controller/initDevice.o
                                                  build/kernel/osctl.o
SuspendAllInterrupts                              build/kernel/interrupt.o
SuspendOSInterrupts                               build/kernel/interrupt.o
SysTimerCnt                                       build/./kernel_cfg.o
                                                  build/controller/initDevice.o
TU_finish                                         build/unit/TimerUnit.o
                                                  build/controller/Runner.o
TU_is_start                                       build/unit/TimerUnit.o
                                                  build/controller/Runner.o
TU_is_timeout                                     build/unit/TimerUnit.o
                                                  build/controller/Runner.o
TU_start                                          build/unit/TimerUnit.o
                                                  build/controller/Runner.o
TaskMainActionTask                                build/controller/Runner.o
                                                  build/./kernel_cfg.o
TaskMainBalanceTask                               build/unit/BalancerUnit.o
                                                  build/./kernel_cfg.o
TaskMainDisplayTask                               build/controller/Monitor.o
                                                  build/./kernel_cfg.o
TerminateTask                                     build/kernel/task_manage.o
                                                  build/unit/BalancerUnit.o
                                                  build/unit/TimerUnit.o
                                                  build/controller/Monitor.o
                                                  build/controller/Runner.o
WaitEvent                                         build/kernel/event.o
____addsf3_change_to_arm                          /cygdrive/C/cygwin/GNUARM/bin/../lib/gcc/arm-elf/4.0.2/../../../../arm-elf/lib/thumb/interwork/libc.a(strncpy.o)
____addsf3_from_thumb                             /cygdrive/C/cygwin/GNUARM/bin/../lib/gcc/arm-elf/4.0.2/../../../../arm-elf/lib/thumb/interwork/libc.a(strncpy.o)
____divsf3_change_to_arm                          /cygdrive/C/cygwin/GNUARM/bin/../lib/gcc/arm-elf/4.0.2/../../../../arm-elf/lib/thumb/interwork/libc.a(strncpy.o)
____divsf3_from_thumb                             /cygdrive/C/cygwin/GNUARM/bin/../lib/gcc/arm-elf/4.0.2/../../../../arm-elf/lib/thumb/interwork/libc.a(strncpy.o)
____fixsfsi_change_to_arm                         /cygdrive/C/cygwin/GNUARM/bin/../lib/gcc/arm-elf/4.0.2/../../../../arm-elf/lib/thumb/interwork/libc.a(strncpy.o)
____fixsfsi_from_thumb                            /cygdrive/C/cygwin/GNUARM/bin/../lib/gcc/arm-elf/4.0.2/../../../../arm-elf/lib/thumb/interwork/libc.a(strncpy.o)
____floatsidf_change_to_arm                       /cygdrive/C/cygwin/GNUARM/bin/../lib/gcc/arm-elf/4.0.2/../../../../arm-elf/lib/thumb/interwork/libc.a(strncpy.o)
____floatsidf_from_thumb                          /cygdrive/C/cygwin/GNUARM/bin/../lib/gcc/arm-elf/4.0.2/../../../../arm-elf/lib/thumb/interwork/libc.a(strncpy.o)
____floatsisf_change_to_arm                       /cygdrive/C/cygwin/GNUARM/bin/../lib/gcc/arm-elf/4.0.2/../../../../arm-elf/lib/thumb/interwork/libc.a(strncpy.o)
____floatsisf_from_thumb                          /cygdrive/C/cygwin/GNUARM/bin/../lib/gcc/arm-elf/4.0.2/../../../../arm-elf/lib/thumb/interwork/libc.a(strncpy.o)
____gesf2_change_to_arm                           /cygdrive/C/cygwin/GNUARM/bin/../lib/gcc/arm-elf/4.0.2/../../../../arm-elf/lib/thumb/interwork/libc.a(strncpy.o)
____gesf2_from_thumb                              /cygdrive/C/cygwin/GNUARM/bin/../lib/gcc/arm-elf/4.0.2/../../../../arm-elf/lib/thumb/interwork/libc.a(strncpy.o)
____gtdf2_change_to_arm                           /cygdrive/C/cygwin/GNUARM/bin/../lib/gcc/arm-elf/4.0.2/../../../../arm-elf/lib/thumb/interwork/libc.a(strncpy.o)
____gtdf2_from_thumb                              /cygdrive/C/cygwin/GNUARM/bin/../lib/gcc/arm-elf/4.0.2/../../../../arm-elf/lib/thumb/interwork/libc.a(strncpy.o)
____gtsf2_change_to_arm                           /cygdrive/C/cygwin/GNUARM/bin/../lib/gcc/arm-elf/4.0.2/../../../../arm-elf/lib/thumb/interwork/libc.a(strncpy.o)
____gtsf2_from_thumb                              /cygdrive/C/cygwin/GNUARM/bin/../lib/gcc/arm-elf/4.0.2/../../../../arm-elf/lib/thumb/interwork/libc.a(strncpy.o)
____lesf2_change_to_arm                           /cygdrive/C/cygwin/GNUARM/bin/../lib/gcc/arm-elf/4.0.2/../../../../arm-elf/lib/thumb/interwork/libc.a(strncpy.o)
____lesf2_from_thumb                              /cygdrive/C/cygwin/GNUARM/bin/../lib/gcc/arm-elf/4.0.2/../../../../arm-elf/lib/thumb/interwork/libc.a(strncpy.o)
____ltsf2_change_to_arm                           /cygdrive/C/cygwin/GNUARM/bin/../lib/gcc/arm-elf/4.0.2/../../../../arm-elf/lib/thumb/interwork/libc.a(strncpy.o)
____ltsf2_from_thumb                              /cygdrive/C/cygwin/GNUARM/bin/../lib/gcc/arm-elf/4.0.2/../../../../arm-elf/lib/thumb/interwork/libc.a(strncpy.o)
____muldf3_change_to_arm                          /cygdrive/C/cygwin/GNUARM/bin/../lib/gcc/arm-elf/4.0.2/../../../../arm-elf/lib/thumb/interwork/libc.a(strncpy.o)
____muldf3_from_thumb                             /cygdrive/C/cygwin/GNUARM/bin/../lib/gcc/arm-elf/4.0.2/../../../../arm-elf/lib/thumb/interwork/libc.a(strncpy.o)
____mulsf3_change_to_arm                          /cygdrive/C/cygwin/GNUARM/bin/../lib/gcc/arm-elf/4.0.2/../../../../arm-elf/lib/thumb/interwork/libc.a(strncpy.o)
____mulsf3_from_thumb                             /cygdrive/C/cygwin/GNUARM/bin/../lib/gcc/arm-elf/4.0.2/../../../../arm-elf/lib/thumb/interwork/libc.a(strncpy.o)
____subsf3_change_to_arm                          /cygdrive/C/cygwin/GNUARM/bin/../lib/gcc/arm-elf/4.0.2/../../../../arm-elf/lib/thumb/interwork/libc.a(strncpy.o)
____subsf3_from_thumb                             /cygdrive/C/cygwin/GNUARM/bin/../lib/gcc/arm-elf/4.0.2/../../../../arm-elf/lib/thumb/interwork/libc.a(strncpy.o)
__adddf3                                          /cygdrive/C/cygwin/GNUARM/bin/../lib/gcc/arm-elf/4.0.2/thumb/interwork/libgcc.a(_addsubdf3.o)
__addsf3                                          /cygdrive/C/cygwin/GNUARM/bin/../lib/gcc/arm-elf/4.0.2/thumb/interwork/libgcc.a(_addsubsf3.o)
                                                  /nxtOSEK/ecrobot/../ecrobot/libnxtway_gs_balancer.a(balancer.o)
                                                  build/unit/BalancerUnit.o
__aeabi_cdcmpeq                                   /cygdrive/C/cygwin/GNUARM/bin/../lib/gcc/arm-elf/4.0.2/thumb/interwork/libgcc.a(_cmpdf2.o)
__aeabi_cdcmple                                   /cygdrive/C/cygwin/GNUARM/bin/../lib/gcc/arm-elf/4.0.2/thumb/interwork/libgcc.a(_cmpdf2.o)
__aeabi_cdrcmple                                  /cygdrive/C/cygwin/GNUARM/bin/../lib/gcc/arm-elf/4.0.2/thumb/interwork/libgcc.a(_cmpdf2.o)
__aeabi_cfcmpeq                                   /cygdrive/C/cygwin/GNUARM/bin/../lib/gcc/arm-elf/4.0.2/thumb/interwork/libgcc.a(_cmpsf2.o)
__aeabi_cfcmple                                   /cygdrive/C/cygwin/GNUARM/bin/../lib/gcc/arm-elf/4.0.2/thumb/interwork/libgcc.a(_cmpsf2.o)
__aeabi_cfrcmple                                  /cygdrive/C/cygwin/GNUARM/bin/../lib/gcc/arm-elf/4.0.2/thumb/interwork/libgcc.a(_cmpsf2.o)
__aeabi_dadd                                      /cygdrive/C/cygwin/GNUARM/bin/../lib/gcc/arm-elf/4.0.2/thumb/interwork/libgcc.a(_addsubdf3.o)
__aeabi_dcmpeq                                    /cygdrive/C/cygwin/GNUARM/bin/../lib/gcc/arm-elf/4.0.2/thumb/interwork/libgcc.a(_cmpdf2.o)
__aeabi_dcmpge                                    /cygdrive/C/cygwin/GNUARM/bin/../lib/gcc/arm-elf/4.0.2/thumb/interwork/libgcc.a(_cmpdf2.o)
__aeabi_dcmpgt                                    /cygdrive/C/cygwin/GNUARM/bin/../lib/gcc/arm-elf/4.0.2/thumb/interwork/libgcc.a(_cmpdf2.o)
__aeabi_dcmple                                    /cygdrive/C/cygwin/GNUARM/bin/../lib/gcc/arm-elf/4.0.2/thumb/interwork/libgcc.a(_cmpdf2.o)
__aeabi_dcmplt                                    /cygdrive/C/cygwin/GNUARM/bin/../lib/gcc/arm-elf/4.0.2/thumb/interwork/libgcc.a(_cmpdf2.o)
__aeabi_ddiv                                      /cygdrive/C/cygwin/GNUARM/bin/../lib/gcc/arm-elf/4.0.2/thumb/interwork/libgcc.a(_muldivdf3.o)
__aeabi_dmul                                      /cygdrive/C/cygwin/GNUARM/bin/../lib/gcc/arm-elf/4.0.2/thumb/interwork/libgcc.a(_muldivdf3.o)
__aeabi_drsub                                     /cygdrive/C/cygwin/GNUARM/bin/../lib/gcc/arm-elf/4.0.2/thumb/interwork/libgcc.a(_addsubdf3.o)
__aeabi_dsub                                      /cygdrive/C/cygwin/GNUARM/bin/../lib/gcc/arm-elf/4.0.2/thumb/interwork/libgcc.a(_addsubdf3.o)
__aeabi_f2d                                       /cygdrive/C/cygwin/GNUARM/bin/../lib/gcc/arm-elf/4.0.2/thumb/interwork/libgcc.a(_addsubdf3.o)
__aeabi_f2iz                                      /cygdrive/C/cygwin/GNUARM/bin/../lib/gcc/arm-elf/4.0.2/thumb/interwork/libgcc.a(_fixsfsi.o)
__aeabi_fadd                                      /cygdrive/C/cygwin/GNUARM/bin/../lib/gcc/arm-elf/4.0.2/thumb/interwork/libgcc.a(_addsubsf3.o)
__aeabi_fcmpeq                                    /cygdrive/C/cygwin/GNUARM/bin/../lib/gcc/arm-elf/4.0.2/thumb/interwork/libgcc.a(_cmpsf2.o)
__aeabi_fcmpge                                    /cygdrive/C/cygwin/GNUARM/bin/../lib/gcc/arm-elf/4.0.2/thumb/interwork/libgcc.a(_cmpsf2.o)
__aeabi_fcmpgt                                    /cygdrive/C/cygwin/GNUARM/bin/../lib/gcc/arm-elf/4.0.2/thumb/interwork/libgcc.a(_cmpsf2.o)
__aeabi_fcmple                                    /cygdrive/C/cygwin/GNUARM/bin/../lib/gcc/arm-elf/4.0.2/thumb/interwork/libgcc.a(_cmpsf2.o)
__aeabi_fcmplt                                    /cygdrive/C/cygwin/GNUARM/bin/../lib/gcc/arm-elf/4.0.2/thumb/interwork/libgcc.a(_cmpsf2.o)
__aeabi_fdiv                                      /cygdrive/C/cygwin/GNUARM/bin/../lib/gcc/arm-elf/4.0.2/thumb/interwork/libgcc.a(_muldivsf3.o)
__aeabi_fmul                                      /cygdrive/C/cygwin/GNUARM/bin/../lib/gcc/arm-elf/4.0.2/thumb/interwork/libgcc.a(_muldivsf3.o)
__aeabi_frsub                                     /cygdrive/C/cygwin/GNUARM/bin/../lib/gcc/arm-elf/4.0.2/thumb/interwork/libgcc.a(_addsubsf3.o)
__aeabi_fsub                                      /cygdrive/C/cygwin/GNUARM/bin/../lib/gcc/arm-elf/4.0.2/thumb/interwork/libgcc.a(_addsubsf3.o)
__aeabi_i2d                                       /cygdrive/C/cygwin/GNUARM/bin/../lib/gcc/arm-elf/4.0.2/thumb/interwork/libgcc.a(_addsubdf3.o)
__aeabi_i2f                                       /cygdrive/C/cygwin/GNUARM/bin/../lib/gcc/arm-elf/4.0.2/thumb/interwork/libgcc.a(_addsubsf3.o)
__aeabi_idiv0                                     /cygdrive/C/cygwin/GNUARM/bin/../lib/gcc/arm-elf/4.0.2/thumb/interwork/libgcc.a(_dvmd_tls.o)
__aeabi_idivmod                                   /cygdrive/C/cygwin/GNUARM/bin/../lib/gcc/arm-elf/4.0.2/thumb/interwork/libgcc.a(_divsi3.o)
__aeabi_l2d                                       /cygdrive/C/cygwin/GNUARM/bin/../lib/gcc/arm-elf/4.0.2/thumb/interwork/libgcc.a(_addsubdf3.o)
__aeabi_l2f                                       /cygdrive/C/cygwin/GNUARM/bin/../lib/gcc/arm-elf/4.0.2/thumb/interwork/libgcc.a(_addsubsf3.o)
__aeabi_ldiv0                                     /cygdrive/C/cygwin/GNUARM/bin/../lib/gcc/arm-elf/4.0.2/thumb/interwork/libgcc.a(_dvmd_tls.o)
__aeabi_ui2d                                      /cygdrive/C/cygwin/GNUARM/bin/../lib/gcc/arm-elf/4.0.2/thumb/interwork/libgcc.a(_addsubdf3.o)
__aeabi_ui2f                                      /cygdrive/C/cygwin/GNUARM/bin/../lib/gcc/arm-elf/4.0.2/thumb/interwork/libgcc.a(_addsubsf3.o)
__aeabi_uidivmod                                  /cygdrive/C/cygwin/GNUARM/bin/../lib/gcc/arm-elf/4.0.2/thumb/interwork/libgcc.a(_udivsi3.o)
__aeabi_ul2d                                      /cygdrive/C/cygwin/GNUARM/bin/../lib/gcc/arm-elf/4.0.2/thumb/interwork/libgcc.a(_addsubdf3.o)
__aeabi_ul2f                                      /cygdrive/C/cygwin/GNUARM/bin/../lib/gcc/arm-elf/4.0.2/thumb/interwork/libgcc.a(_addsubsf3.o)
__bss_end__                                       build/ecrobot_init.o
__bss_start__                                     build/ecrobot_init.o
__call_posttaskhook_from_arm                      /cygdrive/C/cygwin/GNUARM/bin/../lib/gcc/arm-elf/4.0.2/../../../../arm-elf/lib/thumb/interwork/libc.a(strncpy.o)
__call_pretaskhook_from_arm                       /cygdrive/C/cygwin/GNUARM/bin/../lib/gcc/arm-elf/4.0.2/../../../../arm-elf/lib/thumb/interwork/libc.a(strncpy.o)
__clz_tab                                         /cygdrive/C/cygwin/GNUARM/bin/../lib/gcc/arm-elf/4.0.2/thumb/interwork/libgcc.a(_clz.o)
                                                  /cygdrive/C/cygwin/GNUARM/bin/../lib/gcc/arm-elf/4.0.2/thumb/interwork/libgcc.a(_divdi3.o)
__cmpdf2                                          /cygdrive/C/cygwin/GNUARM/bin/../lib/gcc/arm-elf/4.0.2/thumb/interwork/libgcc.a(_cmpdf2.o)
__cmpsf2                                          /cygdrive/C/cygwin/GNUARM/bin/../lib/gcc/arm-elf/4.0.2/thumb/interwork/libgcc.a(_cmpsf2.o)
__ctor_begin                                      build/ecrobot_base.o
__ctor_end                                        build/ecrobot_base.o
__data_load_end__                                 build/ecrobot_init.o
__data_load_start__                               build/ecrobot_init.o
__data_ram_start__                                build/ecrobot_init.o
__disable_int_change_to_arm                       /cygdrive/C/cygwin/GNUARM/bin/../lib/gcc/arm-elf/4.0.2/../../../../arm-elf/lib/thumb/interwork/libc.a(strncpy.o)
__disable_int_from_thumb                          /cygdrive/C/cygwin/GNUARM/bin/../lib/gcc/arm-elf/4.0.2/../../../../arm-elf/lib/thumb/interwork/libc.a(strncpy.o)
__dispatch_change_to_arm                          /cygdrive/C/cygwin/GNUARM/bin/../lib/gcc/arm-elf/4.0.2/../../../../arm-elf/lib/thumb/interwork/libc.a(strncpy.o)
__dispatch_from_thumb                             /cygdrive/C/cygwin/GNUARM/bin/../lib/gcc/arm-elf/4.0.2/../../../../arm-elf/lib/thumb/interwork/libc.a(strncpy.o)
__display_bios_status_change_to_arm               /cygdrive/C/cygwin/GNUARM/bin/../lib/gcc/arm-elf/4.0.2/../../../../arm-elf/lib/thumb/interwork/libc.a(strncpy.o)
__display_bios_status_from_thumb                  /cygdrive/C/cygwin/GNUARM/bin/../lib/gcc/arm-elf/4.0.2/../../../../arm-elf/lib/thumb/interwork/libc.a(strncpy.o)
__div0                                            /cygdrive/C/cygwin/GNUARM/bin/../lib/gcc/arm-elf/4.0.2/thumb/interwork/libgcc.a(_dvmd_tls.o)
                                                  /cygdrive/C/cygwin/GNUARM/bin/../lib/gcc/arm-elf/4.0.2/thumb/interwork/libgcc.a(_modsi3.o)
                                                  /cygdrive/C/cygwin/GNUARM/bin/../lib/gcc/arm-elf/4.0.2/thumb/interwork/libgcc.a(_umodsi3.o)
                                                  /cygdrive/C/cygwin/GNUARM/bin/../lib/gcc/arm-elf/4.0.2/thumb/interwork/libgcc.a(_divsi3.o)
                                                  /cygdrive/C/cygwin/GNUARM/bin/../lib/gcc/arm-elf/4.0.2/thumb/interwork/libgcc.a(_udivsi3.o)
__divdf3                                          /cygdrive/C/cygwin/GNUARM/bin/../lib/gcc/arm-elf/4.0.2/thumb/interwork/libgcc.a(_muldivdf3.o)
__divdi3                                          /cygdrive/C/cygwin/GNUARM/bin/../lib/gcc/arm-elf/4.0.2/thumb/interwork/libgcc.a(_divdi3.o)
                                                  /nxtOSEK/ecrobot/../ecrobot/libecrobot.a(sound.oram)
__divsf3                                          /cygdrive/C/cygwin/GNUARM/bin/../lib/gcc/arm-elf/4.0.2/thumb/interwork/libgcc.a(_muldivsf3.o)
                                                  /nxtOSEK/ecrobot/../ecrobot/libnxtway_gs_balancer.a(balancer.o)
__divsi3                                          /cygdrive/C/cygwin/GNUARM/bin/../lib/gcc/arm-elf/4.0.2/thumb/interwork/libgcc.a(_divsi3.o)
                                                  /nxtOSEK/ecrobot/../ecrobot/libecrobot.a(sound.oram)
                                                  /nxtOSEK/ecrobot/../ecrobot/libecrobot.a(uart.oram)
                                                  build/unit/TimerUnit.o
__dtor_begin                                      build/ecrobot_base.o
__dtor_end                                        build/ecrobot_base.o
__ecrobot_debug1_from_arm                         /cygdrive/C/cygwin/GNUARM/bin/../lib/gcc/arm-elf/4.0.2/../../../../arm-elf/lib/thumb/interwork/libc.a(strncpy.o)
__ecrobot_debug2_from_arm                         /cygdrive/C/cygwin/GNUARM/bin/../lib/gcc/arm-elf/4.0.2/../../../../arm-elf/lib/thumb/interwork/libc.a(strncpy.o)
__enable_int_change_to_arm                        /cygdrive/C/cygwin/GNUARM/bin/../lib/gcc/arm-elf/4.0.2/../../../../arm-elf/lib/thumb/interwork/libc.a(strncpy.o)
__enable_int_from_thumb                           /cygdrive/C/cygwin/GNUARM/bin/../lib/gcc/arm-elf/4.0.2/../../../../arm-elf/lib/thumb/interwork/libc.a(strncpy.o)
__eqdf2                                           /cygdrive/C/cygwin/GNUARM/bin/../lib/gcc/arm-elf/4.0.2/thumb/interwork/libgcc.a(_cmpdf2.o)
__eqsf2                                           /cygdrive/C/cygwin/GNUARM/bin/../lib/gcc/arm-elf/4.0.2/thumb/interwork/libgcc.a(_cmpsf2.o)
__exit_and_dispatch_change_to_arm                 /cygdrive/C/cygwin/GNUARM/bin/../lib/gcc/arm-elf/4.0.2/../../../../arm-elf/lib/thumb/interwork/libc.a(strncpy.o)
__exit_and_dispatch_from_thumb                    /cygdrive/C/cygwin/GNUARM/bin/../lib/gcc/arm-elf/4.0.2/../../../../arm-elf/lib/thumb/interwork/libc.a(strncpy.o)
__extendsfdf2                                     /cygdrive/C/cygwin/GNUARM/bin/../lib/gcc/arm-elf/4.0.2/thumb/interwork/libgcc.a(_addsubdf3.o)
__fixsfsi                                         /cygdrive/C/cygwin/GNUARM/bin/../lib/gcc/arm-elf/4.0.2/thumb/interwork/libgcc.a(_fixsfsi.o)
                                                  /nxtOSEK/ecrobot/../ecrobot/libnxtway_gs_balancer.a(balancer.o)
                                                  build/controller/RunActions.o
__floatdidf                                       /cygdrive/C/cygwin/GNUARM/bin/../lib/gcc/arm-elf/4.0.2/thumb/interwork/libgcc.a(_addsubdf3.o)
__floatdisf                                       /cygdrive/C/cygwin/GNUARM/bin/../lib/gcc/arm-elf/4.0.2/thumb/interwork/libgcc.a(_addsubsf3.o)
__floatsidf                                       /cygdrive/C/cygwin/GNUARM/bin/../lib/gcc/arm-elf/4.0.2/thumb/interwork/libgcc.a(_addsubdf3.o)
                                                  /nxtOSEK/ecrobot/../ecrobot/libecrobot.a(colorsensor.o)
__floatsisf                                       /cygdrive/C/cygwin/GNUARM/bin/../lib/gcc/arm-elf/4.0.2/thumb/interwork/libgcc.a(_addsubsf3.o)
                                                  build/unit/BalancerUnit.o
                                                  build/controller/RunActions.o
__floatundidf                                     /cygdrive/C/cygwin/GNUARM/bin/../lib/gcc/arm-elf/4.0.2/thumb/interwork/libgcc.a(_addsubdf3.o)
__floatundisf                                     /cygdrive/C/cygwin/GNUARM/bin/../lib/gcc/arm-elf/4.0.2/thumb/interwork/libgcc.a(_addsubsf3.o)
__floatunsidf                                     /cygdrive/C/cygwin/GNUARM/bin/../lib/gcc/arm-elf/4.0.2/thumb/interwork/libgcc.a(_addsubdf3.o)
__floatunsisf                                     /cygdrive/C/cygwin/GNUARM/bin/../lib/gcc/arm-elf/4.0.2/thumb/interwork/libgcc.a(_addsubsf3.o)
__gedf2                                           /cygdrive/C/cygwin/GNUARM/bin/../lib/gcc/arm-elf/4.0.2/thumb/interwork/libgcc.a(_cmpdf2.o)
__gesf2                                           /cygdrive/C/cygwin/GNUARM/bin/../lib/gcc/arm-elf/4.0.2/thumb/interwork/libgcc.a(_cmpsf2.o)
                                                  /nxtOSEK/ecrobot/../ecrobot/libnxtway_gs_balancer.a(balancer.o)
                                                  build/unit/BalancerUnit.o
__gtdf2                                           /cygdrive/C/cygwin/GNUARM/bin/../lib/gcc/arm-elf/4.0.2/thumb/interwork/libgcc.a(_cmpdf2.o)
                                                  /nxtOSEK/ecrobot/../ecrobot/libecrobot.a(colorsensor.o)
__gtsf2                                           /cygdrive/C/cygwin/GNUARM/bin/../lib/gcc/arm-elf/4.0.2/thumb/interwork/libgcc.a(_cmpsf2.o)
                                                  build/controller/RunActions.o
__interrupts_enable_change_to_arm                 /cygdrive/C/cygwin/GNUARM/bin/../lib/gcc/arm-elf/4.0.2/../../../../arm-elf/lib/thumb/interwork/libc.a(strncpy.o)
__interrupts_enable_from_thumb                    /cygdrive/C/cygwin/GNUARM/bin/../lib/gcc/arm-elf/4.0.2/../../../../arm-elf/lib/thumb/interwork/libc.a(strncpy.o)
__interrupts_get_and_disable_change_to_arm        /cygdrive/C/cygwin/GNUARM/bin/../lib/gcc/arm-elf/4.0.2/../../../../arm-elf/lib/thumb/interwork/libc.a(strncpy.o)
__interrupts_get_and_disable_from_thumb           /cygdrive/C/cygwin/GNUARM/bin/../lib/gcc/arm-elf/4.0.2/../../../../arm-elf/lib/thumb/interwork/libc.a(strncpy.o)
__irq_stack__                                     build/ecrobot_init.o
__ledf2                                           /cygdrive/C/cygwin/GNUARM/bin/../lib/gcc/arm-elf/4.0.2/thumb/interwork/libgcc.a(_cmpdf2.o)
__lesf2                                           /cygdrive/C/cygwin/GNUARM/bin/../lib/gcc/arm-elf/4.0.2/thumb/interwork/libgcc.a(_cmpsf2.o)
                                                  /nxtOSEK/ecrobot/../ecrobot/libnxtway_gs_balancer.a(balancer.o)
__ltdf2                                           /cygdrive/C/cygwin/GNUARM/bin/../lib/gcc/arm-elf/4.0.2/thumb/interwork/libgcc.a(_cmpdf2.o)
__ltsf2                                           /cygdrive/C/cygwin/GNUARM/bin/../lib/gcc/arm-elf/4.0.2/thumb/interwork/libgcc.a(_cmpsf2.o)
                                                  build/controller/RunActions.o
__modsi3                                          /cygdrive/C/cygwin/GNUARM/bin/../lib/gcc/arm-elf/4.0.2/thumb/interwork/libgcc.a(_modsi3.o)
                                                  /nxtOSEK/ecrobot/../ecrobot/libecrobot.a(flash_loader.oram)
                                                  /nxtOSEK/ecrobot/../ecrobot/libecrobot.a(sound.oram)
__muldf3                                          /cygdrive/C/cygwin/GNUARM/bin/../lib/gcc/arm-elf/4.0.2/thumb/interwork/libgcc.a(_muldivdf3.o)
                                                  /nxtOSEK/ecrobot/../ecrobot/libecrobot.a(colorsensor.o)
__muldi3                                          /cygdrive/C/cygwin/GNUARM/bin/../lib/gcc/arm-elf/4.0.2/thumb/interwork/libgcc.a(_muldi3.o)
                                                  /nxtOSEK/ecrobot/../ecrobot/libecrobot.a(sound.oram)
__mulsf3                                          /cygdrive/C/cygwin/GNUARM/bin/../lib/gcc/arm-elf/4.0.2/thumb/interwork/libgcc.a(_muldivsf3.o)
                                                  /nxtOSEK/ecrobot/../ecrobot/libnxtway_gs_balancer.a(balancer.o)
                                                  build/unit/BalancerUnit.o
                                                  build/controller/RunActions.o
__nedf2                                           /cygdrive/C/cygwin/GNUARM/bin/../lib/gcc/arm-elf/4.0.2/thumb/interwork/libgcc.a(_cmpdf2.o)
__nesf2                                           /cygdrive/C/cygwin/GNUARM/bin/../lib/gcc/arm-elf/4.0.2/thumb/interwork/libgcc.a(_cmpsf2.o)
__ramtext_load_end__                              build/ecrobot_init.o
__ramtext_load_start__                            build/ecrobot_init.o
__ramtext_ram_start__                             build/ecrobot_init.o
__stack_end__                                     build/ecrobot_init.o
__stack_start__                                   build/ecrobot_init.o
__start_change_to_arm                             /cygdrive/C/cygwin/GNUARM/bin/../lib/gcc/arm-elf/4.0.2/../../../../arm-elf/lib/thumb/interwork/libc.a(strncpy.o)
__start_dispatch_change_to_arm                    /cygdrive/C/cygwin/GNUARM/bin/../lib/gcc/arm-elf/4.0.2/../../../../arm-elf/lib/thumb/interwork/libc.a(strncpy.o)
__start_dispatch_from_thumb                       /cygdrive/C/cygwin/GNUARM/bin/../lib/gcc/arm-elf/4.0.2/../../../../arm-elf/lib/thumb/interwork/libc.a(strncpy.o)
__start_from_thumb                                /cygdrive/C/cygwin/GNUARM/bin/../lib/gcc/arm-elf/4.0.2/../../../../arm-elf/lib/thumb/interwork/libc.a(strncpy.o)
__subdf3                                          /cygdrive/C/cygwin/GNUARM/bin/../lib/gcc/arm-elf/4.0.2/thumb/interwork/libgcc.a(_addsubdf3.o)
__subsf3                                          /cygdrive/C/cygwin/GNUARM/bin/../lib/gcc/arm-elf/4.0.2/thumb/interwork/libgcc.a(_addsubsf3.o)
                                                  /nxtOSEK/ecrobot/../ecrobot/libnxtway_gs_balancer.a(balancer.o)
                                                  build/unit/BalancerUnit.o
__system_stack__                                  build/config/at91sam7s-gnu/cpu_support.oram
                                                  build/ecrobot_init.o
__udivsi3                                         /cygdrive/C/cygwin/GNUARM/bin/../lib/gcc/arm-elf/4.0.2/thumb/interwork/libgcc.a(_udivsi3.o)
                                                  /cygdrive/C/cygwin/GNUARM/bin/../lib/gcc/arm-elf/4.0.2/thumb/interwork/libgcc.a(_divdi3.o)
                                                  /nxtOSEK/ecrobot/../ecrobot/libecrobot.a(sound.oram)
                                                  /nxtOSEK/ecrobot/../ecrobot/libecrobot.a(display.oram)
                                                  /nxtOSEK/ecrobot/../ecrobot/libecrobot.a(ecrobot_interface.o)
                                                  build/ecrobot_base.o
__umodsi3                                         /cygdrive/C/cygwin/GNUARM/bin/../lib/gcc/arm-elf/4.0.2/thumb/interwork/libgcc.a(_umodsi3.o)
                                                  /cygdrive/C/cygwin/GNUARM/bin/../lib/gcc/arm-elf/4.0.2/thumb/interwork/libgcc.a(_divdi3.o)
                                                  /nxtOSEK/ecrobot/../ecrobot/libecrobot.a(display.oram)
__vectors_load_end__                              build/ecrobot_init.o
__vectors_load_start__                            build/ecrobot_init.o
__vectors_ram_start__                             build/ecrobot_init.o
_errorhook_par1                                   build/kernel/task_manage.o
                                                  build/kernel/resource.o
                                                  build/kernel/osctl.o
                                                  build/kernel/event.o
                                                  build/kernel/alarm.o
_errorhook_par2                                   build/kernel/task_manage.o
                                                  build/kernel/osctl.o
                                                  build/kernel/event.o
                                                  build/kernel/alarm.o
_errorhook_par3                                   build/kernel/osctl.o
                                                  build/kernel/alarm.o
_errorhook_svcid                                  build/kernel/osctl.o
_interrupt                                        build/config/at91sam7s-gnu/cpu_support.oram
                                                  build/config/at91sam7s-gnu/irq.oram
_sbrk_r                                           build/syscalls.o
activate_r                                        build/config/at91sam7s-gnu/cpu_support.oram
                                                  build/kernel/task.o
add_status_info                                   build/ecrobot_base.o
                                                  build/ecrobot.o
                                                  build/ecrobot_bluetooth.o
aic_clear                                         /nxtOSEK/ecrobot/../ecrobot/libecrobot.a(aic.oram)
                                                  /nxtOSEK/ecrobot/../ecrobot/libecrobot.a(bt.oram)
                                                  /nxtOSEK/ecrobot/../ecrobot/libecrobot.a(sound.oram)
aic_initialise                                    /nxtOSEK/ecrobot/../ecrobot/libecrobot.a(aic.oram)
                                                  /nxtOSEK/ecrobot/../ecrobot/libecrobot.a(flash_loader.oram)
aic_mask_off                                      /nxtOSEK/ecrobot/../ecrobot/libecrobot.a(aic.oram)
                                                  /nxtOSEK/ecrobot/../ecrobot/libecrobot.a(bt.oram)
                                                  /nxtOSEK/ecrobot/../ecrobot/libecrobot.a(i2c.oram)
                                                  /nxtOSEK/ecrobot/../ecrobot/libecrobot.a(nxt_motors.oram)
                                                  /nxtOSEK/ecrobot/../ecrobot/libecrobot.a(nxt_spi.oram)
                                                  /nxtOSEK/ecrobot/../ecrobot/libecrobot.a(twi.oram)
                                                  /nxtOSEK/ecrobot/../ecrobot/libecrobot.a(udp.oram)
                                                  /nxtOSEK/ecrobot/../ecrobot/libecrobot.a(systick.oram)
                                                  /nxtOSEK/ecrobot/../ecrobot/libecrobot.a(uart.oram)
aic_mask_on                                       /nxtOSEK/ecrobot/../ecrobot/libecrobot.a(aic.oram)
                                                  /nxtOSEK/ecrobot/../ecrobot/libecrobot.a(sound.oram)
                                                  /nxtOSEK/ecrobot/../ecrobot/libecrobot.a(i2c.oram)
                                                  /nxtOSEK/ecrobot/../ecrobot/libecrobot.a(nxt_motors.oram)
                                                  /nxtOSEK/ecrobot/../ecrobot/libecrobot.a(nxt_spi.oram)
                                                  /nxtOSEK/ecrobot/../ecrobot/libecrobot.a(twi.oram)
                                                  /nxtOSEK/ecrobot/../ecrobot/libecrobot.a(udp.oram)
                                                  /nxtOSEK/ecrobot/../ecrobot/libecrobot.a(systick.oram)
                                                  /nxtOSEK/ecrobot/../ecrobot/libecrobot.a(uart.oram)
aic_set_vector                                    /nxtOSEK/ecrobot/../ecrobot/libecrobot.a(aic.oram)
                                                  /nxtOSEK/ecrobot/../ecrobot/libecrobot.a(sound.oram)
                                                  /nxtOSEK/ecrobot/../ecrobot/libecrobot.a(i2c.oram)
                                                  /nxtOSEK/ecrobot/../ecrobot/libecrobot.a(nxt_motors.oram)
                                                  /nxtOSEK/ecrobot/../ecrobot/libecrobot.a(nxt_spi.oram)
                                                  /nxtOSEK/ecrobot/../ecrobot/libecrobot.a(twi.oram)
                                                  /nxtOSEK/ecrobot/../ecrobot/libecrobot.a(udp.oram)
                                                  /nxtOSEK/ecrobot/../ecrobot/libecrobot.a(systick.oram)
                                                  /nxtOSEK/ecrobot/../ecrobot/libecrobot.a(uart.oram)
alarm_initialize                                  build/kernel/alarm.o
                                                  build/./kernel_cfg.o
almcb_almval                                      build/./kernel_cfg.o
                                                  build/kernel/alarm.o
almcb_cycle                                       build/./kernel_cfg.o
                                                  build/kernel/alarm.o
almcb_next                                        build/./kernel_cfg.o
                                                  build/kernel/alarm.o
almcb_prev                                        build/./kernel_cfg.o
                                                  build/kernel/alarm.o
alminib_almval                                    build/./kernel_cfg.o
                                                  build/kernel/alarm.o
alminib_autosta                                   build/./kernel_cfg.o
                                                  build/kernel/alarm.o
alminib_cback                                     build/./kernel_cfg.o
                                                  build/kernel/alarm.o
alminib_cntid                                     build/./kernel_cfg.o
                                                  build/kernel/alarm.o
alminib_cycle                                     build/./kernel_cfg.o
                                                  build/kernel/alarm.o
appmode                                           build/kernel/task.o
                                                  build/kernel/osctl.o
                                                  build/kernel/alarm.o
avr_brainwash_string                              /nxtOSEK/ecrobot/../ecrobot/libecrobot.a(nxt_avr.oram)
balance_control                                   /nxtOSEK/ecrobot/../ecrobot/libnxtway_gs_balancer.a(balancer.o)
                                                  build/unit/BalancerUnit.o
balance_init                                      /nxtOSEK/ecrobot/../ecrobot/libnxtway_gs_balancer.a(balancer.o)
                                                  build/unit/BalancerUnit.o
battery_voltage                                   /nxtOSEK/ecrobot/../ecrobot/libecrobot.a(nxt_avr.oram)
                                                  /nxtOSEK/ecrobot/../ecrobot/libecrobot.a(ecrobot_interface.o)
bt_clear_arm7_cmd                                 /nxtOSEK/ecrobot/../ecrobot/libecrobot.a(bt.oram)
                                                  build/ecrobot_bluetooth.o
bt_get_mode                                       /nxtOSEK/ecrobot/../ecrobot/libecrobot.a(bt.oram)
bt_init                                           /nxtOSEK/ecrobot/../ecrobot/libecrobot.a(bt.oram)
                                                  /nxtOSEK/ecrobot/../ecrobot/libecrobot.a(flash_loader.oram)
bt_pending                                        /nxtOSEK/ecrobot/../ecrobot/libecrobot.a(bt.oram)
                                                  build/ecrobot_bluetooth.o
bt_read                                           /nxtOSEK/ecrobot/../ecrobot/libecrobot.a(bt.oram)
                                                  build/ecrobot_bluetooth.o
bt_receive                                        /nxtOSEK/ecrobot/../ecrobot/libecrobot.a(bt.oram)
                                                  build/ecrobot_bluetooth.o
bt_reset                                          /nxtOSEK/ecrobot/../ecrobot/libecrobot.a(bt.oram)
                                                  build/ecrobot_bluetooth.o
bt_send                                           /nxtOSEK/ecrobot/../ecrobot/libecrobot.a(bt.oram)
                                                  build/ecrobot_bluetooth.o
bt_set_arm7_cmd                                   /nxtOSEK/ecrobot/../ecrobot/libecrobot.a(bt.oram)
                                                  build/ecrobot_bluetooth.o
bt_set_reset_high                                 /nxtOSEK/ecrobot/../ecrobot/libecrobot.a(bt.oram)
bt_set_reset_low                                  /nxtOSEK/ecrobot/../ecrobot/libecrobot.a(bt.oram)
bt_start_ad_converter                             /nxtOSEK/ecrobot/../ecrobot/libecrobot.a(bt.oram)
bt_write                                          /nxtOSEK/ecrobot/../ecrobot/libecrobot.a(bt.oram)
                                                  build/ecrobot_bluetooth.o
buttons_get                                       /nxtOSEK/ecrobot/../ecrobot/libecrobot.a(nxt_avr.oram)
                                                  /nxtOSEK/ecrobot/../ecrobot/libecrobot.a(flash_loader.oram)
                                                  /nxtOSEK/ecrobot/../ecrobot/libecrobot.a(sensors.oram)
                                                  /nxtOSEK/ecrobot/../ecrobot/libecrobot.a(ecrobot_interface.o)
byte_fifo_clear                                   /nxtOSEK/ecrobot/../ecrobot/libecrobot.a(byte_fifo.oram)
byte_fifo_get                                     /nxtOSEK/ecrobot/../ecrobot/libecrobot.a(byte_fifo.oram)
                                                  /nxtOSEK/ecrobot/../ecrobot/libecrobot.a(uart.oram)
byte_fifo_init                                    /nxtOSEK/ecrobot/../ecrobot/libecrobot.a(byte_fifo.oram)
                                                  /nxtOSEK/ecrobot/../ecrobot/libecrobot.a(uart.oram)
byte_fifo_put                                     /nxtOSEK/ecrobot/../ecrobot/libecrobot.a(byte_fifo.oram)
                                                  /nxtOSEK/ecrobot/../ecrobot/libecrobot.a(uart.oram)
call_errorhook                                    build/kernel/osctl.o
                                                  build/kernel/task_manage.o
                                                  build/kernel/resource.o
                                                  build/kernel/event.o
                                                  build/kernel/alarm.o
call_posttaskhook                                 build/kernel/osctl.o
                                                  build/config/at91sam7s-gnu/cpu_support.oram
call_pretaskhook                                  build/kernel/osctl.o
                                                  build/config/at91sam7s-gnu/cpu_support.oram
callevel                                          build/config/at91sam7s-gnu/cpu_support.oram
                                                  build/kernel/task_manage.o
                                                  build/kernel/resource.o
                                                  build/kernel/osctl.o
                                                  build/kernel/interrupt.o
                                                  build/kernel/event.o
                                                  build/kernel/alarm.o
check_NXT_buttons                                 build/ecrobot_base.o
                                                  build/syslib/at91sam7s-gnu/lego_nxt/hw_sys_timer.oram
check_for_data                                    /nxtOSEK/ecrobot/../ecrobot/libecrobot.a(sensors.oram)
clear_flash_request                               /nxtOSEK/ecrobot/../ecrobot/libecrobot.a(flash_loader.oram)
cntcb_almque                                      build/./kernel_cfg.o
                                                  build/kernel/alarm.o
cntcb_curval                                      build/./kernel_cfg.o
                                                  build/kernel/alarm.o
cntinib_maxval                                    build/./kernel_cfg.o
                                                  build/kernel/alarm.o
cntinib_maxval2                                   build/./kernel_cfg.o
                                                  build/kernel/alarm.o
cntinib_mincyc                                    build/./kernel_cfg.o
                                                  build/kernel/alarm.o
cntinib_tickbase                                  build/./kernel_cfg.o
                                                  build/kernel/alarm.o
colorsensor_color_get                             /nxtOSEK/ecrobot/../ecrobot/libecrobot.a(colorsensor.o)
                                                  /nxtOSEK/ecrobot/../ecrobot/libecrobot.a(ecrobot_interface.o)
colorsensor_init                                  /nxtOSEK/ecrobot/../ecrobot/libecrobot.a(colorsensor.o)
                                                  /nxtOSEK/ecrobot/../ecrobot/libecrobot.a(ecrobot_interface.o)
colorsensor_light_full                            /nxtOSEK/ecrobot/../ecrobot/libecrobot.a(colorsensor.o)
                                                  /nxtOSEK/ecrobot/../ecrobot/libecrobot.a(ecrobot_interface.o)
colorsensor_light_get                             /nxtOSEK/ecrobot/../ecrobot/libecrobot.a(colorsensor.o)
                                                  /nxtOSEK/ecrobot/../ecrobot/libecrobot.a(ecrobot_interface.o)
colorsensor_rgb_get                               /nxtOSEK/ecrobot/../ecrobot/libecrobot.a(colorsensor.o)
                                                  /nxtOSEK/ecrobot/../ecrobot/libecrobot.a(ecrobot_interface.o)
colorsensor_term                                  /nxtOSEK/ecrobot/../ecrobot/libecrobot.a(colorsensor.o)
                                                  /nxtOSEK/ecrobot/../ecrobot/libecrobot.a(ecrobot_interface.o)
counttimer                                        build/./kernel_cfg.o
cpp_constructor                                   build/ecrobot_base.o
                                                  build/ecrobot.o
cpp_destructor                                    build/ecrobot_base.o
cpu_initialize                                    build/config/at91sam7s-gnu/cpu_config.o
                                                  build/kernel/osctl.o
cpu_terminate                                     build/config/at91sam7s-gnu/cpu_config.o
                                                  build/kernel/osctl.o
data                                              /nxtOSEK/ecrobot/../ecrobot/libecrobot.a(nxt_spi.oram)
data_abort_C                                      /nxtOSEK/ecrobot/../ecrobot/libecrobot.a(data_abort.oram)
                                                  build/ecrobot_init.o
data_abort_handler                                build/ecrobot_init.o
                                                  build/nxtvm/platform/nxt/vectors.o
                                                  build/nxtvm/platform/nxt/vectors.o
data_abort_pc                                     /nxtOSEK/ecrobot/../ecrobot/libecrobot.a(data_abort.oram)
                                                  build/ecrobot_init.o
debug1                                            build/config/at91sam7s-gnu/debug.o
debug2                                            build/config/at91sam7s-gnu/debug.o
default_fiq                                       build/config/at91sam7s-gnu/irq.oram
                                                  /nxtOSEK/ecrobot/../ecrobot/libecrobot.a(aic.oram)
default_isr                                       build/config/at91sam7s-gnu/irq.oram
                                                  /nxtOSEK/ecrobot/../ecrobot/libecrobot.a(aic.oram)
digits                                            build/controller/initDevice.o
dirty                                             /nxtOSEK/ecrobot/../ecrobot/libecrobot.a(nxt_spi.oram)
disable_int                                       build/config/at91sam7s-gnu/cpu_support.oram
                                                  build/ecrobot.o
                                                  build/kernel/task_manage.o
                                                  build/kernel/resource.o
                                                  build/kernel/osctl.o
                                                  build/kernel/interrupt.o
                                                  build/kernel/event.o
                                                  build/kernel/alarm.o
dispatch                                          build/config/at91sam7s-gnu/cpu_support.oram
                                                  build/kernel/task_manage.o
                                                  build/kernel/resource.o
                                                  build/kernel/event.o
dispatch_r                                        build/config/at91sam7s-gnu/cpu_support.oram
display                                           /nxtOSEK/ecrobot/../ecrobot/libecrobot.a(nxt_spi.oram)
display_auto_update                               /nxtOSEK/ecrobot/../ecrobot/libecrobot.a(display.oram)
display_bios_status                               /nxtOSEK/ecrobot/../ecrobot/libecrobot.a(flash_loader.oram)
display_bitmap_copy                               /nxtOSEK/ecrobot/../ecrobot/libecrobot.a(display.oram)
                                                  build/ecrobot_base.o
display_char                                      /nxtOSEK/ecrobot/../ecrobot/libecrobot.a(display.oram)
display_clear                                     /nxtOSEK/ecrobot/../ecrobot/libecrobot.a(display.oram)
                                                  /nxtOSEK/ecrobot/../ecrobot/libecrobot.a(flash_loader.oram)
                                                  /nxtOSEK/ecrobot/../ecrobot/libecrobot.a(data_abort.oram)
                                                  /nxtOSEK/ecrobot/../ecrobot/libecrobot.a(ecrobot_interface.o)
                                                  build/unit/DisplayUnit.o
                                                  build/ecrobot.o
                                                  build/ecrobot_base.o
display_force_update                              /nxtOSEK/ecrobot/../ecrobot/libecrobot.a(display.oram)
                                                  /nxtOSEK/ecrobot/../ecrobot/libecrobot.a(data_abort.oram)
                                                  build/ecrobot_base.o
display_get_array                                 /nxtOSEK/ecrobot/../ecrobot/libecrobot.a(display.oram)
display_get_buffer                                /nxtOSEK/ecrobot/../ecrobot/libecrobot.a(display.oram)
display_goto_xy                                   /nxtOSEK/ecrobot/../ecrobot/libecrobot.a(display.oram)
                                                  /nxtOSEK/ecrobot/../ecrobot/libecrobot.a(data_abort.oram)
                                                  /nxtOSEK/ecrobot/../ecrobot/libecrobot.a(ecrobot_interface.o)
                                                  build/unit/DisplayUnit.o
                                                  build/ecrobot_base.o
display_hex                                       /nxtOSEK/ecrobot/../ecrobot/libecrobot.a(display.oram)
                                                  /nxtOSEK/ecrobot/../ecrobot/libecrobot.a(data_abort.oram)
                                                  build/ecrobot_base.o
display_init                                      /nxtOSEK/ecrobot/../ecrobot/libecrobot.a(display.oram)
                                                  /nxtOSEK/ecrobot/../ecrobot/libecrobot.a(flash_loader.oram)
display_int                                       /nxtOSEK/ecrobot/../ecrobot/libecrobot.a(display.oram)
                                                  /nxtOSEK/ecrobot/../ecrobot/libecrobot.a(ecrobot_interface.o)
display_set_auto_update                           /nxtOSEK/ecrobot/../ecrobot/libecrobot.a(display.oram)
display_status_bar                                build/ecrobot_base.o
                                                  build/ecrobot.o
display_string                                    /nxtOSEK/ecrobot/../ecrobot/libecrobot.a(display.oram)
                                                  /nxtOSEK/ecrobot/../ecrobot/libecrobot.a(data_abort.oram)
                                                  /nxtOSEK/ecrobot/../ecrobot/libecrobot.a(ecrobot_interface.o)
                                                  build/unit/DisplayUnit.o
                                                  build/ecrobot_base.o
display_test                                      /nxtOSEK/ecrobot/../ecrobot/libecrobot.a(display.oram)
display_tick                                      /nxtOSEK/ecrobot/../ecrobot/libecrobot.a(display.oram)
display_unsigned                                  /nxtOSEK/ecrobot/../ecrobot/libecrobot.a(display.oram)
                                                  /nxtOSEK/ecrobot/../ecrobot/libecrobot.a(ecrobot_interface.o)
                                                  build/unit/DisplayUnit.o
                                                  build/ecrobot_base.o
display_update                                    /nxtOSEK/ecrobot/../ecrobot/libecrobot.a(display.oram)
                                                  /nxtOSEK/ecrobot/../ecrobot/libecrobot.a(ecrobot_interface.o)
                                                  build/unit/DisplayUnit.o
                                                  build/ecrobot_base.o
display_x                                         /nxtOSEK/ecrobot/../ecrobot/libecrobot.a(display.oram)
display_y                                         /nxtOSEK/ecrobot/../ecrobot/libecrobot.a(display.oram)
ecrobot_adc_data_monitor                          /nxtOSEK/ecrobot/../ecrobot/libecrobot.a(ecrobot_interface.o)
ecrobot_bmp2lcd                                   /nxtOSEK/ecrobot/../ecrobot/libecrobot.a(ecrobot_interface.o)
                                                  build/ecrobot_base.o
ecrobot_bt_adc_data_logger                        /nxtOSEK/ecrobot/../ecrobot/libecrobot.a(ecrobot_interface.o)
ecrobot_bt_data_logger                            /nxtOSEK/ecrobot/../ecrobot/libecrobot.a(ecrobot_interface.o)
ecrobot_cal_color_sensor                          /nxtOSEK/ecrobot/../ecrobot/libecrobot.a(ecrobot_HiTechnic.o)
ecrobot_cal_compass_sensor                        /nxtOSEK/ecrobot/../ecrobot/libecrobot.a(ecrobot_HiTechnic.o)
ecrobot_debug                                     /nxtOSEK/ecrobot/../ecrobot/libecrobot.a(ecrobot_interface.o)
ecrobot_debug1                                    /nxtOSEK/ecrobot/../ecrobot/libecrobot.a(ecrobot_interface.o)
                                                  build/config/at91sam7s-gnu/debug.o
ecrobot_debug2                                    /nxtOSEK/ecrobot/../ecrobot/libecrobot.a(ecrobot_interface.o)
                                                  build/config/at91sam7s-gnu/debug.o
ecrobot_device_initialize                         build/controller/initDevice.o
                                                  build/ecrobot.o
ecrobot_device_terminate                          build/controller/initDevice.o
                                                  build/ecrobot.o
                                                  build/ecrobot_base.o
ecrobot_disconnect_usb                            /nxtOSEK/ecrobot/../ecrobot/libecrobot.a(ecrobot_usb.o)
ecrobot_exec_NXT_BIOS                             /nxtOSEK/ecrobot/../ecrobot/libecrobot.a(ecrobot_interface.o)
ecrobot_get_RCX_sensor                            /nxtOSEK/ecrobot/../ecrobot/libecrobot.a(ecrobot_interface.o)
ecrobot_get_RCX_touch_sensor                      /nxtOSEK/ecrobot/../ecrobot/libecrobot.a(ecrobot_interface.o)
ecrobot_get_accel_sensor                          /nxtOSEK/ecrobot/../ecrobot/libecrobot.a(ecrobot_HiTechnic.o)
ecrobot_get_battery_voltage                       /nxtOSEK/ecrobot/../ecrobot/libecrobot.a(ecrobot_interface.o)
                                                  build/unit/BalancerUnit.o
                                                  build/ecrobot_base.o
ecrobot_get_bt_device_address                     build/ecrobot_bluetooth.o
ecrobot_get_bt_device_name                        build/ecrobot_bluetooth.o
ecrobot_get_bt_signal_strength                    build/ecrobot_bluetooth.o
ecrobot_get_bt_status                             build/ecrobot_bluetooth.o
                                                  /nxtOSEK/ecrobot/../ecrobot/libecrobot.a(ecrobot_interface.o)
ecrobot_get_button_state                          /nxtOSEK/ecrobot/../ecrobot/libecrobot.a(ecrobot_interface.o)
                                                  build/ecrobot.o
                                                  build/ecrobot_base.o
ecrobot_get_color_sensor                          /nxtOSEK/ecrobot/../ecrobot/libecrobot.a(ecrobot_HiTechnic.o)
ecrobot_get_compass_sensor                        /nxtOSEK/ecrobot/../ecrobot/libecrobot.a(ecrobot_HiTechnic.o)
ecrobot_get_gyro_sensor                           /nxtOSEK/ecrobot/../ecrobot/libecrobot.a(ecrobot_HiTechnic.o)
                                                  build/unit/BalancerUnit.o
ecrobot_get_ir_seeker                             /nxtOSEK/ecrobot/../ecrobot/libecrobot.a(ecrobot_HiTechnic.o)
ecrobot_get_light_sensor                          /nxtOSEK/ecrobot/../ecrobot/libecrobot.a(ecrobot_interface.o)
                                                  build/unit/LineMonitorUnit.o
ecrobot_get_motor_rev                             /nxtOSEK/ecrobot/../ecrobot/libecrobot.a(ecrobot_interface.o)
ecrobot_get_nxtcolorsensor_id                     /nxtOSEK/ecrobot/../ecrobot/libecrobot.a(ecrobot_interface.o)
ecrobot_get_nxtcolorsensor_light                  /nxtOSEK/ecrobot/../ecrobot/libecrobot.a(ecrobot_interface.o)
ecrobot_get_nxtcolorsensor_mode                   /nxtOSEK/ecrobot/../ecrobot/libecrobot.a(ecrobot_interface.o)
ecrobot_get_nxtcolorsensor_rgb                    /nxtOSEK/ecrobot/../ecrobot/libecrobot.a(ecrobot_interface.o)
ecrobot_get_prototype_analog_sensor               /nxtOSEK/ecrobot/../ecrobot/libecrobot.a(ecrobot_HiTechnic.o)
ecrobot_get_prototype_digital_sensor              /nxtOSEK/ecrobot/../ecrobot/libecrobot.a(ecrobot_HiTechnic.o)
ecrobot_get_prototype_sensor                      /nxtOSEK/ecrobot/../ecrobot/libecrobot.a(ecrobot_HiTechnic.o)
ecrobot_get_sonar_sensor                          /nxtOSEK/ecrobot/../ecrobot/libecrobot.a(ecrobot_interface.o)
                                                  build/unit/BlockMonitorUnit.o
ecrobot_get_sound_sensor                          /nxtOSEK/ecrobot/../ecrobot/libecrobot.a(ecrobot_interface.o)
ecrobot_get_systick_ms                            /nxtOSEK/ecrobot/../ecrobot/libecrobot.a(ecrobot_interface.o)
ecrobot_get_touch_sensor                          /nxtOSEK/ecrobot/../ecrobot/libecrobot.a(ecrobot_interface.o)
                                                  build/unit/BumperUnit.o
ecrobot_initDeviceStatus                          /nxtOSEK/ecrobot/../ecrobot/libecrobot.a(ecrobot_interface.o)
                                                  build/ecrobot.o
ecrobot_init_accel_sensor                         /nxtOSEK/ecrobot/../ecrobot/libecrobot.a(ecrobot_HiTechnic.o)
ecrobot_init_bt_connection                        build/ecrobot_bluetooth.o
ecrobot_init_bt_master                            build/ecrobot_bluetooth.o
                                                  build/unit/CommunicationUnit.o
ecrobot_init_bt_slave                             build/ecrobot_bluetooth.o
                                                  build/unit/CommunicationUnit.o
ecrobot_init_color_sensor                         /nxtOSEK/ecrobot/../ecrobot/libecrobot.a(ecrobot_HiTechnic.o)
ecrobot_init_compass_sensor                       /nxtOSEK/ecrobot/../ecrobot/libecrobot.a(ecrobot_HiTechnic.o)
ecrobot_init_i2c                                  /nxtOSEK/ecrobot/../ecrobot/libecrobot.a(ecrobot_interface.o)
                                                  /nxtOSEK/ecrobot/../ecrobot/libecrobot.a(ecrobot_HiTechnic.o)
ecrobot_init_ir_seeker                            /nxtOSEK/ecrobot/../ecrobot/libecrobot.a(ecrobot_HiTechnic.o)
ecrobot_init_nxtcolorsensor                       /nxtOSEK/ecrobot/../ecrobot/libecrobot.a(ecrobot_interface.o)
ecrobot_init_nxtstate                             /nxtOSEK/ecrobot/../ecrobot/libecrobot.a(ecrobot_interface.o)
                                                  build/ecrobot.o
ecrobot_init_prototype_sensor                     /nxtOSEK/ecrobot/../ecrobot/libecrobot.a(ecrobot_HiTechnic.o)
ecrobot_init_sonar_sensor                         /nxtOSEK/ecrobot/../ecrobot/libecrobot.a(ecrobot_interface.o)
                                                  build/unit/BlockMonitorUnit.o
ecrobot_init_tetrix                               /nxtOSEK/ecrobot/../ecrobot/libecrobot.a(ecrobot_HiTechnic.o)
ecrobot_init_usb                                  /nxtOSEK/ecrobot/../ecrobot/libecrobot.a(ecrobot_usb.o)
                                                  /nxtOSEK/ecrobot/../ecrobot/libecrobot.a(flash_loader.oram)
ecrobot_is_ENTER_button_pressed                   /nxtOSEK/ecrobot/../ecrobot/libecrobot.a(ecrobot_interface.o)
ecrobot_is_RUN_button_pressed                     /nxtOSEK/ecrobot/../ecrobot/libecrobot.a(ecrobot_interface.o)
ecrobot_is_usb_connected                          /nxtOSEK/ecrobot/../ecrobot/libecrobot.a(ecrobot_usb.o)
ecrobot_poll_nxtstate                             /nxtOSEK/ecrobot/../ecrobot/libecrobot.a(ecrobot_interface.o)
                                                  build/ecrobot.o
                                                  build/ecrobot_base.o
ecrobot_process1ms_usb                            /nxtOSEK/ecrobot/../ecrobot/libecrobot.a(ecrobot_usb.o)
                                                  /nxtOSEK/ecrobot/../ecrobot/libecrobot.a(flash_loader.oram)
ecrobot_process_bg_nxtcolorsensor                 /nxtOSEK/ecrobot/../ecrobot/libecrobot.a(ecrobot_interface.o)
ecrobot_read_bt                                   build/ecrobot_bluetooth.o
ecrobot_read_bt_packet                            build/ecrobot_bluetooth.o
                                                  build/unit/CommunicationUnit.o
ecrobot_read_i2c                                  /nxtOSEK/ecrobot/../ecrobot/libecrobot.a(ecrobot_interface.o)
                                                  /nxtOSEK/ecrobot/../ecrobot/libecrobot.a(ecrobot_HiTechnic.o)
ecrobot_read_usb                                  /nxtOSEK/ecrobot/../ecrobot/libecrobot.a(ecrobot_usb.o)
                                                  /nxtOSEK/ecrobot/../ecrobot/libecrobot.a(flash_loader.oram)
ecrobot_restart_NXT                               /nxtOSEK/ecrobot/../ecrobot/libecrobot.a(ecrobot_interface.o)
ecrobot_send_bt                                   build/ecrobot_bluetooth.o
ecrobot_send_bt_packet                            build/ecrobot_bluetooth.o
                                                  /nxtOSEK/ecrobot/../ecrobot/libecrobot.a(ecrobot_interface.o)
                                                  build/unit/CommunicationUnit.o
ecrobot_send_i2c                                  /nxtOSEK/ecrobot/../ecrobot/libecrobot.a(ecrobot_interface.o)
                                                  /nxtOSEK/ecrobot/../ecrobot/libecrobot.a(ecrobot_HiTechnic.o)
ecrobot_send_prototype_digital_sensor             /nxtOSEK/ecrobot/../ecrobot/libecrobot.a(ecrobot_HiTechnic.o)
ecrobot_send_usb                                  /nxtOSEK/ecrobot/../ecrobot/libecrobot.a(ecrobot_usb.o)
                                                  /nxtOSEK/ecrobot/../ecrobot/libecrobot.a(flash_loader.oram)
ecrobot_setDeviceInitialized                      /nxtOSEK/ecrobot/../ecrobot/libecrobot.a(ecrobot_interface.o)
                                                  build/ecrobot.o
ecrobot_set_RCX_power_source                      /nxtOSEK/ecrobot/../ecrobot/libecrobot.a(ecrobot_interface.o)
ecrobot_set_bt_device_name                        build/ecrobot_bluetooth.o
ecrobot_set_bt_factory_settings                   build/ecrobot_bluetooth.o
ecrobot_set_light_sensor_active                   /nxtOSEK/ecrobot/../ecrobot/libecrobot.a(ecrobot_interface.o)
                                                  build/unit/LineMonitorUnit.o
ecrobot_set_light_sensor_inactive                 /nxtOSEK/ecrobot/../ecrobot/libecrobot.a(ecrobot_interface.o)
                                                  build/unit/LineMonitorUnit.o
ecrobot_set_motor_mode_speed                      /nxtOSEK/ecrobot/../ecrobot/libecrobot.a(ecrobot_interface.o)
ecrobot_set_motor_rev                             /nxtOSEK/ecrobot/../ecrobot/libecrobot.a(ecrobot_interface.o)
                                                  build/unit/BalancerUnit.o
ecrobot_set_motor_speed                           /nxtOSEK/ecrobot/../ecrobot/libecrobot.a(ecrobot_interface.o)
ecrobot_set_name_usb                              /nxtOSEK/ecrobot/../ecrobot/libecrobot.a(ecrobot_usb.o)
                                                  /nxtOSEK/ecrobot/../ecrobot/libecrobot.a(flash_loader.oram)
ecrobot_set_nxtcolorsensor                        /nxtOSEK/ecrobot/../ecrobot/libecrobot.a(ecrobot_interface.o)
ecrobot_show_int                                  /nxtOSEK/ecrobot/../ecrobot/libecrobot.a(ecrobot_interface.o)
ecrobot_shutdown_NXT                              /nxtOSEK/ecrobot/../ecrobot/libecrobot.a(ecrobot_interface.o)
ecrobot_sint_var_monitor                          /nxtOSEK/ecrobot/../ecrobot/libecrobot.a(ecrobot_interface.o)
ecrobot_sound_tone                                /nxtOSEK/ecrobot/../ecrobot/libecrobot.a(ecrobot_interface.o)
                                                  build/unit/HornUnit.o
ecrobot_sound_wav                                 /nxtOSEK/ecrobot/../ecrobot/libecrobot.a(ecrobot_interface.o)
ecrobot_status_monitor                            /nxtOSEK/ecrobot/../ecrobot/libecrobot.a(ecrobot_interface.o)
ecrobot_term_RCX_power_source                     /nxtOSEK/ecrobot/../ecrobot/libecrobot.a(ecrobot_interface.o)
ecrobot_term_accel_sensor                         /nxtOSEK/ecrobot/../ecrobot/libecrobot.a(ecrobot_HiTechnic.o)
ecrobot_term_bt_connection                        build/ecrobot_bluetooth.o
                                                  build/unit/CommunicationUnit.o
ecrobot_term_color_sensor                         /nxtOSEK/ecrobot/../ecrobot/libecrobot.a(ecrobot_HiTechnic.o)
ecrobot_term_compass_sensor                       /nxtOSEK/ecrobot/../ecrobot/libecrobot.a(ecrobot_HiTechnic.o)
ecrobot_term_i2c                                  /nxtOSEK/ecrobot/../ecrobot/libecrobot.a(ecrobot_interface.o)
                                                  /nxtOSEK/ecrobot/../ecrobot/libecrobot.a(ecrobot_HiTechnic.o)
ecrobot_term_ir_seeker                            /nxtOSEK/ecrobot/../ecrobot/libecrobot.a(ecrobot_HiTechnic.o)
ecrobot_term_nxtcolorsensor                       /nxtOSEK/ecrobot/../ecrobot/libecrobot.a(ecrobot_interface.o)
ecrobot_term_prototype_sensor                     /nxtOSEK/ecrobot/../ecrobot/libecrobot.a(ecrobot_HiTechnic.o)
ecrobot_term_sonar_sensor                         /nxtOSEK/ecrobot/../ecrobot/libecrobot.a(ecrobot_interface.o)
                                                  build/unit/BlockMonitorUnit.o
ecrobot_term_tetrix                               /nxtOSEK/ecrobot/../ecrobot/libecrobot.a(ecrobot_HiTechnic.o)
ecrobot_term_usb                                  /nxtOSEK/ecrobot/../ecrobot/libecrobot.a(ecrobot_usb.o)
                                                  /nxtOSEK/ecrobot/../ecrobot/libecrobot.a(flash_loader.oram)
ecrobot_tetrix_battery                            /nxtOSEK/ecrobot/../ecrobot/libecrobot.a(ecrobot_HiTechnic.o)
ecrobot_tetrix_motors                             /nxtOSEK/ecrobot/../ecrobot/libecrobot.a(ecrobot_HiTechnic.o)
ecrobot_tetrix_servos                             /nxtOSEK/ecrobot/../ecrobot/libecrobot.a(ecrobot_HiTechnic.o)
ecrobot_wait_i2c_ready                            /nxtOSEK/ecrobot/../ecrobot/libecrobot.a(ecrobot_interface.o)
                                                  /nxtOSEK/ecrobot/../ecrobot/libecrobot.a(ecrobot_HiTechnic.o)
enable_int                                        build/config/at91sam7s-gnu/cpu_support.oram
                                                  build/kernel/task_manage.o
                                                  build/kernel/resource.o
                                                  build/kernel/osctl.o
                                                  build/kernel/interrupt.o
                                                  build/kernel/event.o
                                                  build/kernel/alarm.o
end                                               build/syscalls.o
exec_NXT_BIOS                                     build/ecrobot_base.o
                                                  /nxtOSEK/ecrobot/../ecrobot/libecrobot.a(ecrobot_interface.o)
exec_addr                                         build/ecrobot_base.o
exec_app                                          /nxtOSEK/ecrobot/../ecrobot/libecrobot.a(flash_loader.oram)
execution_mode                                    build/ecrobot_base.o
                                                  build/ecrobot.o
exit_and_dispatch                                 build/config/at91sam7s-gnu/cpu_support.oram
                                                  build/kernel/task_manage.o
fiq_enable                                        /nxtOSEK/ecrobot/../ecrobot/libecrobot.a(interrupts.oram)
fiq_get_and_disable                               /nxtOSEK/ecrobot/../ecrobot/libecrobot.a(interrupts.oram)
flash_erase_range                                 /nxtOSEK/ecrobot/../ecrobot/libecrobot.a(flashprog.oram)
flash_loader                                      /nxtOSEK/ecrobot/../ecrobot/libecrobot.a(flash_loader.oram)
flash_set_mode                                    /nxtOSEK/ecrobot/../ecrobot/libecrobot.a(flashprog.oram)
flash_write                                       /nxtOSEK/ecrobot/../ecrobot/libecrobot.a(flashprog.oram)
flash_write_page                                  /nxtOSEK/ecrobot/../ecrobot/libecrobot.a(flashprog.oram)
                                                  /nxtOSEK/ecrobot/../ecrobot/libecrobot.a(flash_loader.oram)
get_OS_flag                                       build/ecrobot_base.o
                                                  build/syslib/at91sam7s-gnu/lego_nxt/hw_sys_timer.oram
get_device_status                                 /nxtOSEK/ecrobot/../ecrobot/libecrobot.a(ecrobot_interface.o)
has_flash_request                                 /nxtOSEK/ecrobot/../ecrobot/libecrobot.a(flash_loader.oram)
i2c_busy                                          /nxtOSEK/ecrobot/../ecrobot/libecrobot.a(i2c.oram)
                                                  /nxtOSEK/ecrobot/../ecrobot/libecrobot.a(ecrobot_interface.o)
                                                  /nxtOSEK/ecrobot/../ecrobot/libecrobot.a(ecrobot_HiTechnic.o)
i2c_disable                                       /nxtOSEK/ecrobot/../ecrobot/libecrobot.a(i2c.oram)
                                                  /nxtOSEK/ecrobot/../ecrobot/libecrobot.a(ecrobot_interface.o)
                                                  /nxtOSEK/ecrobot/../ecrobot/libecrobot.a(ecrobot_HiTechnic.o)
i2c_enable                                        /nxtOSEK/ecrobot/../ecrobot/libecrobot.a(i2c.oram)
                                                  /nxtOSEK/ecrobot/../ecrobot/libecrobot.a(ecrobot_interface.o)
i2c_init                                          /nxtOSEK/ecrobot/../ecrobot/libecrobot.a(i2c.oram)
                                                  /nxtOSEK/ecrobot/../ecrobot/libecrobot.a(flash_loader.oram)
i2c_start_transaction                             /nxtOSEK/ecrobot/../ecrobot/libecrobot.a(i2c.oram)
                                                  /nxtOSEK/ecrobot/../ecrobot/libecrobot.a(ecrobot_interface.o)
                                                  /nxtOSEK/ecrobot/../ecrobot/libecrobot.a(ecrobot_HiTechnic.o)
i2c_timer_isr_C                                   /nxtOSEK/ecrobot/../ecrobot/libecrobot.a(i2c.oram)
                                                  build/config/at91sam7s-gnu/irq.oram
i2c_timer_isr_entry                               build/config/at91sam7s-gnu/irq.oram
                                                  /nxtOSEK/ecrobot/../ecrobot/libecrobot.a(i2c.oram)
init_OS_flag                                      build/ecrobot_base.o
                                                  build/ecrobot.o
init_sensors                                      /nxtOSEK/ecrobot/../ecrobot/libecrobot.a(sensors.oram)
                                                  /nxtOSEK/ecrobot/../ecrobot/libecrobot.a(flash_loader.oram)
int_return                                        build/config/at91sam7s-gnu/cpu_support.oram
interrupt_initialize                              build/kernel/interrupt.o
interrupts_enable                                 /nxtOSEK/ecrobot/../ecrobot/libecrobot.a(interrupts.oram)
                                                  /nxtOSEK/ecrobot/../ecrobot/libecrobot.a(flashprog.oram)
                                                  /nxtOSEK/ecrobot/../ecrobot/libecrobot.a(flash_loader.oram)
                                                  /nxtOSEK/ecrobot/../ecrobot/libecrobot.a(i2c.oram)
                                                  /nxtOSEK/ecrobot/../ecrobot/libecrobot.a(nxt_motors.oram)
                                                  /nxtOSEK/ecrobot/../ecrobot/libecrobot.a(nxt_spi.oram)
                                                  /nxtOSEK/ecrobot/../ecrobot/libecrobot.a(twi.oram)
                                                  /nxtOSEK/ecrobot/../ecrobot/libecrobot.a(udp.oram)
                                                  /nxtOSEK/ecrobot/../ecrobot/libecrobot.a(aic.oram)
                                                  /nxtOSEK/ecrobot/../ecrobot/libecrobot.a(systick.oram)
                                                  /nxtOSEK/ecrobot/../ecrobot/libecrobot.a(uart.oram)
interrupts_get_and_disable                        /nxtOSEK/ecrobot/../ecrobot/libecrobot.a(interrupts.oram)
                                                  /nxtOSEK/ecrobot/../ecrobot/libecrobot.a(flashprog.oram)
                                                  /nxtOSEK/ecrobot/../ecrobot/libecrobot.a(i2c.oram)
                                                  /nxtOSEK/ecrobot/../ecrobot/libecrobot.a(nxt_motors.oram)
                                                  /nxtOSEK/ecrobot/../ecrobot/libecrobot.a(nxt_spi.oram)
                                                  /nxtOSEK/ecrobot/../ecrobot/libecrobot.a(twi.oram)
                                                  /nxtOSEK/ecrobot/../ecrobot/libecrobot.a(udp.oram)
                                                  /nxtOSEK/ecrobot/../ecrobot/libecrobot.a(aic.oram)
                                                  /nxtOSEK/ecrobot/../ecrobot/libecrobot.a(systick.oram)
                                                  /nxtOSEK/ecrobot/../ecrobot/libecrobot.a(uart.oram)
ipl_maxisr2                                       build/./kernel_cfg.o
is_bios_version_equal                             /nxtOSEK/ecrobot/../ecrobot/libecrobot.a(flash_loader.oram)
isrcb_lastres                                     build/./kernel_cfg.o
                                                  build/kernel/resource.o
                                                  build/kernel/interrupt.o
isrinib_intpri                                    build/./kernel_cfg.o
                                                  build/kernel/resource.o
logvol                                            /nxtOSEK/ecrobot/../ecrobot/libecrobot.a(sound.oram)
main                                              build/ecrobot.o
                                                  build/ecrobot_init.o
make_active                                       build/kernel/task.o
                                                  build/kernel/task_manage.o
make_runnable                                     build/kernel/task.o
                                                  build/kernel/event.o
memcpy                                            /cygdrive/C/cygwin/GNUARM/bin/../lib/gcc/arm-elf/4.0.2/../../../../arm-elf/lib/thumb/interwork/libc.a(memcpy.o)
                                                  /nxtOSEK/ecrobot/../ecrobot/libecrobot.a(ecrobot_usb.o)
                                                  /nxtOSEK/ecrobot/../ecrobot/libecrobot.a(bt.oram)
                                                  /nxtOSEK/ecrobot/../ecrobot/libecrobot.a(udp.oram)
memset                                            /cygdrive/C/cygwin/GNUARM/bin/../lib/gcc/arm-elf/4.0.2/../../../../arm-elf/lib/thumb/interwork/libc.a(memset.o)
                                                  /nxtOSEK/ecrobot/../ecrobot/libecrobot.a(ecrobot_usb.o)
                                                  /nxtOSEK/ecrobot/../ecrobot/libecrobot.a(flash_loader.oram)
                                                  /nxtOSEK/ecrobot/../ecrobot/libecrobot.a(nxt_avr.oram)
                                                  /nxtOSEK/ecrobot/../ecrobot/libecrobot.a(i2c.oram)
                                                  /nxtOSEK/ecrobot/../ecrobot/libecrobot.a(display.oram)
                                                  /nxtOSEK/ecrobot/../ecrobot/libecrobot.a(ecrobot_interface.o)
                                                  build/ecrobot_base.o
                                                  build/ecrobot_bluetooth.o
mode                                              /nxtOSEK/ecrobot/../ecrobot/libecrobot.a(nxt_spi.oram)
nextpri                                           build/kernel/task_manage.o
                                                  build/kernel/task.o
                                                  build/kernel/resource.o
nop                                               build/config/at91sam7s-gnu/cpu_support.oram
nxt_avr_1kHz_update                               /nxtOSEK/ecrobot/../ecrobot/libecrobot.a(nxt_avr.oram)
                                                  /nxtOSEK/ecrobot/../ecrobot/libecrobot.a(flashprog.oram)
                                                  /nxtOSEK/ecrobot/../ecrobot/libecrobot.a(systick.oram)
nxt_avr_firmware_update_mode                      /nxtOSEK/ecrobot/../ecrobot/libecrobot.a(nxt_avr.oram)
nxt_avr_init                                      /nxtOSEK/ecrobot/../ecrobot/libecrobot.a(nxt_avr.oram)
                                                  /nxtOSEK/ecrobot/../ecrobot/libecrobot.a(flash_loader.oram)
nxt_avr_link_init                                 /nxtOSEK/ecrobot/../ecrobot/libecrobot.a(nxt_avr.oram)
nxt_avr_power_down                                /nxtOSEK/ecrobot/../ecrobot/libecrobot.a(nxt_avr.oram)
                                                  /nxtOSEK/ecrobot/../ecrobot/libecrobot.a(flash_loader.oram)
                                                  build/ecrobot.o
                                                  build/ecrobot_base.o
nxt_avr_set_input_power                           /nxtOSEK/ecrobot/../ecrobot/libecrobot.a(nxt_avr.oram)
                                                  /nxtOSEK/ecrobot/../ecrobot/libecrobot.a(sensors1.oram)
                                                  /nxtOSEK/ecrobot/../ecrobot/libecrobot.a(sensors.oram)
                                                  /nxtOSEK/ecrobot/../ecrobot/libecrobot.a(ecrobot_interface.o)
nxt_avr_set_motor                                 /nxtOSEK/ecrobot/../ecrobot/libecrobot.a(nxt_avr.oram)
                                                  /nxtOSEK/ecrobot/../ecrobot/libecrobot.a(nxt_motors.oram)
nxt_device_init                                   /nxtOSEK/ecrobot/../ecrobot/libecrobot.a(flash_loader.oram)
                                                  build/ecrobot.o
nxt_lcd_command                                   /nxtOSEK/ecrobot/../ecrobot/libecrobot.a(nxt_lcd.oram)
nxt_lcd_enable                                    /nxtOSEK/ecrobot/../ecrobot/libecrobot.a(nxt_lcd.oram)
nxt_lcd_force_update                              /nxtOSEK/ecrobot/../ecrobot/libecrobot.a(nxt_lcd.oram)
                                                  /nxtOSEK/ecrobot/../ecrobot/libecrobot.a(display.oram)
nxt_lcd_init                                      /nxtOSEK/ecrobot/../ecrobot/libecrobot.a(nxt_lcd.oram)
                                                  /nxtOSEK/ecrobot/../ecrobot/libecrobot.a(display.oram)
nxt_lcd_inverse_display                           /nxtOSEK/ecrobot/../ecrobot/libecrobot.a(nxt_lcd.oram)
nxt_lcd_power_down                                /nxtOSEK/ecrobot/../ecrobot/libecrobot.a(nxt_lcd.oram)
                                                  /nxtOSEK/ecrobot/../ecrobot/libecrobot.a(flash_loader.oram)
                                                  build/ecrobot.o
                                                  build/ecrobot_base.o
nxt_lcd_power_up                                  /nxtOSEK/ecrobot/../ecrobot/libecrobot.a(nxt_lcd.oram)
nxt_lcd_reset                                     /nxtOSEK/ecrobot/../ecrobot/libecrobot.a(nxt_lcd.oram)
nxt_lcd_set_all_pixels_on                         /nxtOSEK/ecrobot/../ecrobot/libecrobot.a(nxt_lcd.oram)
nxt_lcd_set_bias_ratio                            /nxtOSEK/ecrobot/../ecrobot/libecrobot.a(nxt_lcd.oram)
nxt_lcd_set_col                                   /nxtOSEK/ecrobot/../ecrobot/libecrobot.a(nxt_lcd.oram)
nxt_lcd_set_cursor_update                         /nxtOSEK/ecrobot/../ecrobot/libecrobot.a(nxt_lcd.oram)
nxt_lcd_set_frame_rate                            /nxtOSEK/ecrobot/../ecrobot/libecrobot.a(nxt_lcd.oram)
nxt_lcd_set_map_control                           /nxtOSEK/ecrobot/../ecrobot/libecrobot.a(nxt_lcd.oram)
nxt_lcd_set_multiplex_rate                        /nxtOSEK/ecrobot/../ecrobot/libecrobot.a(nxt_lcd.oram)
nxt_lcd_set_page_address                          /nxtOSEK/ecrobot/../ecrobot/libecrobot.a(nxt_lcd.oram)
nxt_lcd_set_panel_loading                         /nxtOSEK/ecrobot/../ecrobot/libecrobot.a(nxt_lcd.oram)
nxt_lcd_set_pot                                   /nxtOSEK/ecrobot/../ecrobot/libecrobot.a(nxt_lcd.oram)
nxt_lcd_set_pump_control                          /nxtOSEK/ecrobot/../ecrobot/libecrobot.a(nxt_lcd.oram)
nxt_lcd_set_ram_address_control                   /nxtOSEK/ecrobot/../ecrobot/libecrobot.a(nxt_lcd.oram)
nxt_lcd_set_scroll_line                           /nxtOSEK/ecrobot/../ecrobot/libecrobot.a(nxt_lcd.oram)
nxt_lcd_set_temp_comp                             /nxtOSEK/ecrobot/../ecrobot/libecrobot.a(nxt_lcd.oram)
nxt_lcd_update                                    /nxtOSEK/ecrobot/../ecrobot/libecrobot.a(nxt_lcd.oram)
                                                  /nxtOSEK/ecrobot/../ecrobot/libecrobot.a(display.oram)
nxt_motor_1kHz_process                            /nxtOSEK/ecrobot/../ecrobot/libecrobot.a(nxt_motors.oram)
                                                  /nxtOSEK/ecrobot/../ecrobot/libecrobot.a(systick.oram)
nxt_motor_command                                 /nxtOSEK/ecrobot/../ecrobot/libecrobot.a(nxt_motors.oram)
nxt_motor_get_count                               /nxtOSEK/ecrobot/../ecrobot/libecrobot.a(nxt_motors.oram)
                                                  /nxtOSEK/ecrobot/../ecrobot/libecrobot.a(ecrobot_interface.o)
                                                  build/unit/BalancerUnit.o
nxt_motor_init                                    /nxtOSEK/ecrobot/../ecrobot/libecrobot.a(nxt_motors.oram)
                                                  /nxtOSEK/ecrobot/../ecrobot/libecrobot.a(flash_loader.oram)
nxt_motor_isr_C                                   /nxtOSEK/ecrobot/../ecrobot/libecrobot.a(nxt_motors.oram)
                                                  build/config/at91sam7s-gnu/irq.oram
nxt_motor_isr_entry                               build/config/at91sam7s-gnu/irq.oram
                                                  /nxtOSEK/ecrobot/../ecrobot/libecrobot.a(nxt_motors.oram)
nxt_motor_quad_decode                             /nxtOSEK/ecrobot/../ecrobot/libecrobot.a(nxt_motors.oram)
nxt_motor_set_count                               /nxtOSEK/ecrobot/../ecrobot/libecrobot.a(nxt_motors.oram)
                                                  /nxtOSEK/ecrobot/../ecrobot/libecrobot.a(ecrobot_interface.o)
                                                  build/ecrobot.o
nxt_motor_set_speed                               /nxtOSEK/ecrobot/../ecrobot/libecrobot.a(nxt_motors.oram)
                                                  /nxtOSEK/ecrobot/../ecrobot/libecrobot.a(ecrobot_interface.o)
                                                  build/unit/BalancerUnit.o
nxt_spi_init                                      /nxtOSEK/ecrobot/../ecrobot/libecrobot.a(nxt_spi.oram)
                                                  /nxtOSEK/ecrobot/../ecrobot/libecrobot.a(nxt_lcd.oram)
nxt_spi_refresh                                   /nxtOSEK/ecrobot/../ecrobot/libecrobot.a(nxt_spi.oram)
                                                  /nxtOSEK/ecrobot/../ecrobot/libecrobot.a(nxt_lcd.oram)
nxt_spi_set_display                               /nxtOSEK/ecrobot/../ecrobot/libecrobot.a(nxt_spi.oram)
                                                  /nxtOSEK/ecrobot/../ecrobot/libecrobot.a(nxt_lcd.oram)
nxt_spi_write                                     /nxtOSEK/ecrobot/../ecrobot/libecrobot.a(nxt_spi.oram)
                                                  /nxtOSEK/ecrobot/../ecrobot/libecrobot.a(nxt_lcd.oram)
nxtosek_splash_bmp_end                            /nxtOSEK/ecrobot/../ecrobot/libecrobot.a(nxtosek_splash.obmp)
nxtosek_splash_bmp_size                           /nxtOSEK/ecrobot/../ecrobot/libecrobot.a(nxtosek_splash.obmp)
nxtosek_splash_bmp_start                          /nxtOSEK/ecrobot/../ecrobot/libecrobot.a(nxtosek_splash.obmp)
                                                  build/ecrobot_base.o
object_initialize                                 build/./kernel_cfg.o
                                                  build/kernel/osctl.o
page                                              /nxtOSEK/ecrobot/../ecrobot/libecrobot.a(nxt_spi.oram)
poll_sensors                                      /nxtOSEK/ecrobot/../ecrobot/libecrobot.a(sensors.oram)
preempt                                           build/kernel/task.o
                                                  build/kernel/task_manage.o
                                                  build/kernel/resource.o
prefetch_abort_handler                            build/ecrobot_init.o
                                                  build/nxtvm/platform/nxt/vectors.o
                                                  build/nxtvm/platform/nxt/vectors.o
read_buttons                                      /nxtOSEK/ecrobot/../ecrobot/libecrobot.a(sensors.oram)
rescb_prevpri                                     build/./kernel_cfg.o
                                                  build/kernel/resource.o
rescb_prevres                                     build/./kernel_cfg.o
                                                  build/kernel/resource.o
reserved_handler                                  build/ecrobot_init.o
                                                  build/nxtvm/platform/nxt/vectors.o
                                                  build/nxtvm/platform/nxt/vectors.o
resinib_ceilpri                                   build/./kernel_cfg.o
                                                  build/kernel/resource.o
resource_initialize                               build/kernel/resource.o
restart_NXT                                       build/ecrobot_base.o
                                                  /nxtOSEK/ecrobot/../ecrobot/libecrobot.a(ecrobot_interface.o)
runisr                                            build/config/at91sam7s-gnu/irq.oram
                                                  build/config/at91sam7s-gnu/cpu_support.oram
                                                  build/kernel/resource.o
                                                  build/kernel/interrupt.o
runtsk                                            build/config/at91sam7s-gnu/cpu_support.oram
                                                  build/kernel/task_manage.o
                                                  build/kernel/task.o
                                                  build/kernel/resource.o
                                                  build/kernel/event.o
sample                                            /nxtOSEK/ecrobot/../ecrobot/libecrobot.a(sound.oram)
sample_pattern                                    /nxtOSEK/ecrobot/../ecrobot/libecrobot.a(sound.oram)
schedtsk                                          build/config/at91sam7s-gnu/cpu_support.oram
                                                  build/kernel/task.o
search_schedtsk                                   build/kernel/task.o
                                                  build/kernel/task_manage.o
                                                  build/kernel/event.o
sensor_adc                                        /nxtOSEK/ecrobot/../ecrobot/libecrobot.a(nxt_avr.oram)
                                                  /nxtOSEK/ecrobot/../ecrobot/libecrobot.a(sensors1.oram)
                                                  /nxtOSEK/ecrobot/../ecrobot/libecrobot.a(sensors.oram)
                                                  /nxtOSEK/ecrobot/../ecrobot/libecrobot.a(ecrobot_interface.o)
                                                  /nxtOSEK/ecrobot/../ecrobot/libecrobot.a(ecrobot_HiTechnic.o)
sensor_pins                                       /nxtOSEK/ecrobot/../ecrobot/libecrobot.a(sensors1.oram)
                                                  /nxtOSEK/ecrobot/../ecrobot/libecrobot.a(colorsensor.o)
sensors                                           /nxtOSEK/ecrobot/../ecrobot/libecrobot.a(sensors.oram)
set_OS_flag                                       build/ecrobot_base.o
                                                  build/ecrobot.o
set_digi0                                         /nxtOSEK/ecrobot/../ecrobot/libecrobot.a(sensors.oram)
                                                  /nxtOSEK/ecrobot/../ecrobot/libecrobot.a(ecrobot_interface.o)
set_digi1                                         /nxtOSEK/ecrobot/../ecrobot/libecrobot.a(sensors.oram)
set_flash_request                                 /nxtOSEK/ecrobot/../ecrobot/libecrobot.a(flash_loader.oram)
                                                  build/ecrobot.o
                                                  build/ecrobot_base.o
show_bd_addr                                      build/ecrobot_base.o
                                                  build/ecrobot_bluetooth.o
show_bd_addr_err                                  build/ecrobot_base.o
                                                  build/ecrobot_bluetooth.o
show_main_screen                                  build/ecrobot_base.o
                                                  build/ecrobot.o
show_splash_screen                                build/ecrobot_base.o
                                                  build/ecrobot.o
shutdown_NXT                                      build/ecrobot_base.o
                                                  /nxtOSEK/ecrobot/../ecrobot/libecrobot.a(ecrobot_interface.o)
silence                                           /nxtOSEK/ecrobot/../ecrobot/libecrobot.a(sound.oram)
sine                                              /nxtOSEK/ecrobot/../ecrobot/libecrobot.a(sound.oram)
sound_disable                                     /nxtOSEK/ecrobot/../ecrobot/libecrobot.a(sound.oram)
sound_enable                                      /nxtOSEK/ecrobot/../ecrobot/libecrobot.a(sound.oram)
sound_fill_sample_buffer                          /nxtOSEK/ecrobot/../ecrobot/libecrobot.a(sound.oram)
sound_freq                                        /nxtOSEK/ecrobot/../ecrobot/libecrobot.a(sound.oram)
sound_freq_vol                                    /nxtOSEK/ecrobot/../ecrobot/libecrobot.a(sound.oram)
                                                  /nxtOSEK/ecrobot/../ecrobot/libecrobot.a(ecrobot_interface.o)
sound_get_time                                    /nxtOSEK/ecrobot/../ecrobot/libecrobot.a(sound.oram)
                                                  /nxtOSEK/ecrobot/../ecrobot/libecrobot.a(ecrobot_interface.o)
sound_init                                        /nxtOSEK/ecrobot/../ecrobot/libecrobot.a(sound.oram)
                                                  /nxtOSEK/ecrobot/../ecrobot/libecrobot.a(flash_loader.oram)
sound_interrupt_disable                           /nxtOSEK/ecrobot/../ecrobot/libecrobot.a(sound.oram)
sound_interrupt_enable                            /nxtOSEK/ecrobot/../ecrobot/libecrobot.a(sound.oram)
sound_isr_C                                       /nxtOSEK/ecrobot/../ecrobot/libecrobot.a(sound.oram)
                                                  build/config/at91sam7s-gnu/irq.oram
sound_isr_entry                                   build/config/at91sam7s-gnu/irq.oram
                                                  /nxtOSEK/ecrobot/../ecrobot/libecrobot.a(sound.oram)
sound_mode                                        /nxtOSEK/ecrobot/../ecrobot/libecrobot.a(sound.oram)
sound_play_sample                                 /nxtOSEK/ecrobot/../ecrobot/libecrobot.a(sound.oram)
                                                  /nxtOSEK/ecrobot/../ecrobot/libecrobot.a(ecrobot_interface.o)
sp_get                                            /nxtOSEK/ecrobot/../ecrobot/libecrobot.a(sensors1.oram)
                                                  /nxtOSEK/ecrobot/../ecrobot/libecrobot.a(colorsensor.o)
sp_init                                           /nxtOSEK/ecrobot/../ecrobot/libecrobot.a(sensors1.oram)
sp_read                                           /nxtOSEK/ecrobot/../ecrobot/libecrobot.a(sensors1.oram)
                                                  /nxtOSEK/ecrobot/../ecrobot/libecrobot.a(colorsensor.o)
sp_reset                                          /nxtOSEK/ecrobot/../ecrobot/libecrobot.a(sensors1.oram)
                                                  /nxtOSEK/ecrobot/../ecrobot/libecrobot.a(colorsensor.o)
sp_set                                            /nxtOSEK/ecrobot/../ecrobot/libecrobot.a(sensors1.oram)
                                                  /nxtOSEK/ecrobot/../ecrobot/libecrobot.a(colorsensor.o)
sp_set_mode                                       /nxtOSEK/ecrobot/../ecrobot/libecrobot.a(sensors1.oram)
                                                  /nxtOSEK/ecrobot/../ecrobot/libecrobot.a(colorsensor.o)
sp_set_power                                      /nxtOSEK/ecrobot/../ecrobot/libecrobot.a(sensors1.oram)
spi_isr_C                                         /nxtOSEK/ecrobot/../ecrobot/libecrobot.a(nxt_spi.oram)
                                                  build/config/at91sam7s-gnu/irq.oram
spi_isr_entry                                     build/config/at91sam7s-gnu/irq.oram
                                                  /nxtOSEK/ecrobot/../ecrobot/libecrobot.a(nxt_spi.oram)
spurious_isr                                      build/config/at91sam7s-gnu/irq.oram
                                                  /nxtOSEK/ecrobot/../ecrobot/libecrobot.a(aic.oram)
start                                             build/ecrobot_init.o
                                                  build/nxtvm/platform/nxt/vectors.o
                                                  build/nxtvm/platform/nxt/vectors.o
                                                  build/ecrobot_base.o
start_dispatch                                    build/config/at91sam7s-gnu/cpu_support.oram
                                                  build/kernel/osctl.o
strcmp                                            /cygdrive/C/cygwin/GNUARM/bin/../lib/gcc/arm-elf/4.0.2/../../../../arm-elf/lib/thumb/interwork/libc.a(strcmp.o)
                                                  /nxtOSEK/ecrobot/../ecrobot/libecrobot.a(ecrobot_usb.o)
                                                  /nxtOSEK/ecrobot/../ecrobot/libecrobot.a(flash_loader.oram)
strcpy                                            /cygdrive/C/cygwin/GNUARM/bin/../lib/gcc/arm-elf/4.0.2/../../../../arm-elf/lib/thumb/interwork/libc.a(strcpy.o)
                                                  /nxtOSEK/ecrobot/../ecrobot/libecrobot.a(ecrobot_usb.o)
                                                  /nxtOSEK/ecrobot/../ecrobot/libecrobot.a(flash_loader.oram)
                                                  build/ecrobot_base.o
strlen                                            /cygdrive/C/cygwin/GNUARM/bin/../lib/gcc/arm-elf/4.0.2/../../../../arm-elf/lib/thumb/interwork/libc.a(strlen.o)
                                                  /nxtOSEK/ecrobot/../ecrobot/libecrobot.a(nxt_avr.oram)
                                                  build/ecrobot_base.o
strncpy                                           /cygdrive/C/cygwin/GNUARM/bin/../lib/gcc/arm-elf/4.0.2/../../../../arm-elf/lib/thumb/interwork/libc.a(strncpy.o)
                                                  build/ecrobot_bluetooth.o
sus_all_cnt                                       build/kernel/osctl.o
                                                  build/kernel/interrupt.o
swi_handler                                       build/ecrobot_init.o
                                                  build/nxtvm/platform/nxt/vectors.o
                                                  build/nxtvm/platform/nxt/vectors.o
sys_exit                                          build/config/at91sam7s-gnu/lego_nxt/sys_config.o
                                                  build/kernel/osctl.o
sys_initialize                                    build/config/at91sam7s-gnu/lego_nxt/sys_config.o
                                                  build/kernel/osctl.o
systick_get_ms                                    /nxtOSEK/ecrobot/../ecrobot/libecrobot.a(systick.oram)
                                                  /nxtOSEK/ecrobot/../ecrobot/libecrobot.a(flashprog.oram)
                                                  /nxtOSEK/ecrobot/../ecrobot/libecrobot.a(display.oram)
                                                  /nxtOSEK/ecrobot/../ecrobot/libecrobot.a(ecrobot_interface.o)
                                                  build/ecrobot.o
                                                  build/ecrobot_base.o
                                                  build/ecrobot_bluetooth.o
systick_init                                      /nxtOSEK/ecrobot/../ecrobot/libecrobot.a(systick.oram)
                                                  /nxtOSEK/ecrobot/../ecrobot/libecrobot.a(flash_loader.oram)
systick_isr_C                                     /nxtOSEK/ecrobot/../ecrobot/libecrobot.a(systick.oram)
                                                  build/config/at91sam7s-gnu/irq.oram
systick_isr_C1                                    build/syslib/at91sam7s-gnu/lego_nxt/hw_sys_timer.oram
                                                  build/config/at91sam7s-gnu/irq.oram
systick_isr_entry                                 build/config/at91sam7s-gnu/irq.oram
                                                  /nxtOSEK/ecrobot/../ecrobot/libecrobot.a(systick.oram)
systick_low_priority_C                            /nxtOSEK/ecrobot/../ecrobot/libecrobot.a(systick.oram)
                                                  build/syslib/at91sam7s-gnu/lego_nxt/hw_sys_timer.oram
systick_low_priority_entry                        build/config/at91sam7s-gnu/irq.oram
                                                  /nxtOSEK/ecrobot/../ecrobot/libecrobot.a(systick.oram)
systick_resume                                    /nxtOSEK/ecrobot/../ecrobot/libecrobot.a(systick.oram)
                                                  /nxtOSEK/ecrobot/../ecrobot/libecrobot.a(flashprog.oram)
systick_suspend                                   /nxtOSEK/ecrobot/../ecrobot/libecrobot.a(systick.oram)
                                                  /nxtOSEK/ecrobot/../ecrobot/libecrobot.a(flashprog.oram)
systick_test                                      /nxtOSEK/ecrobot/../ecrobot/libecrobot.a(systick.oram)
systick_wait_ms                                   /nxtOSEK/ecrobot/../ecrobot/libecrobot.a(systick.oram)
                                                  /nxtOSEK/ecrobot/../ecrobot/libecrobot.a(flashprog.oram)
                                                  /nxtOSEK/ecrobot/../ecrobot/libecrobot.a(flash_loader.oram)
                                                  /nxtOSEK/ecrobot/../ecrobot/libecrobot.a(nxt_lcd.oram)
                                                  /nxtOSEK/ecrobot/../ecrobot/libecrobot.a(bt.oram)
                                                  /nxtOSEK/ecrobot/../ecrobot/libecrobot.a(display.oram)
                                                  /nxtOSEK/ecrobot/../ecrobot/libecrobot.a(udp.oram)
                                                  /nxtOSEK/ecrobot/../ecrobot/libecrobot.a(colorsensor.o)
                                                  build/unit/HornUnit.o
                                                  build/ecrobot.o
                                                  build/ecrobot_base.o
                                                  build/ecrobot_bluetooth.o
systick_wait_ns                                   /nxtOSEK/ecrobot/../ecrobot/libecrobot.a(systick.oram)
                                                  /nxtOSEK/ecrobot/../ecrobot/libecrobot.a(twi.oram)
target_subsystem_name                             build/controller/initDevice.o
task_action                                       build/./kernel_cfg.o
task_balance                                      build/./kernel_cfg.o
task_display                                      build/./kernel_cfg.o
task_initialize                                   build/kernel/task.o
                                                  build/./kernel_cfg.o
tcb_actcnt                                        build/./kernel_cfg.o
                                                  build/kernel/task_manage.o
                                                  build/kernel/task.o
tcb_curevt                                        build/./kernel_cfg.o
                                                  build/kernel/task.o
                                                  build/kernel/event.o
tcb_curpri                                        build/config/at91sam7s-gnu/cpu_support.oram
                                                  build/./kernel_cfg.o
                                                  build/kernel/task_manage.o
                                                  build/kernel/task.o
                                                  build/kernel/resource.o
                                                  build/kernel/event.o
tcb_lastres                                       build/./kernel_cfg.o
                                                  build/kernel/task_manage.o
                                                  build/kernel/task.o
                                                  build/kernel/resource.o
                                                  build/kernel/event.o
tcb_next                                          build/./kernel_cfg.o
                                                  build/kernel/task.o
tcb_tstat                                         build/./kernel_cfg.o
                                                  build/kernel/task_manage.o
                                                  build/kernel/task.o
                                                  build/kernel/event.o
tcb_waievt                                        build/./kernel_cfg.o
                                                  build/kernel/task.o
                                                  build/kernel/event.o
tcxb_pc                                           build/config/at91sam7s-gnu/cpu_support.oram
                                                  build/./kernel_cfg.o
                                                  build/kernel/task.o
tcxb_sp                                           build/config/at91sam7s-gnu/cpu_support.oram
                                                  build/./kernel_cfg.o
                                                  build/kernel/task.o
terminate_flash                                   /nxtOSEK/ecrobot/../ecrobot/libecrobot.a(flash_loader.oram)
tinib_autoact                                     build/./kernel_cfg.o
                                                  build/kernel/task.o
tinib_exepri                                      build/./kernel_cfg.o
                                                  build/config/at91sam7s-gnu/cpu_support.oram
                                                  build/kernel/task_manage.o
                                                  build/kernel/event.o
tinib_inipri                                      build/./kernel_cfg.o
                                                  build/kernel/task_manage.o
                                                  build/kernel/task.o
                                                  build/kernel/resource.o
                                                  build/kernel/event.o
tinib_maxact                                      build/./kernel_cfg.o
                                                  build/kernel/task_manage.o
tinib_stk                                         build/./kernel_cfg.o
                                                  build/kernel/task.o
tinib_stksz                                       build/./kernel_cfg.o
                                                  build/kernel/task.o
tinib_task                                        build/./kernel_cfg.o
                                                  build/config/at91sam7s-gnu/cpu_support.oram
tnum_alarm                                        build/./kernel_cfg.o
                                                  build/kernel/alarm.o
tnum_counter                                      build/./kernel_cfg.o
                                                  build/kernel/alarm.o
tnum_exttask                                      build/./kernel_cfg.o
                                                  build/kernel/task.o
                                                  build/kernel/event.o
tnum_isr2                                         build/./kernel_cfg.o
                                                  build/kernel/interrupt.o
tnum_resource                                     build/./kernel_cfg.o
                                                  build/kernel/resource.o
tnum_task                                         build/./kernel_cfg.o
                                                  build/kernel/task_manage.o
                                                  build/kernel/task.o
                                                  build/kernel/event.o
twi_init                                          /nxtOSEK/ecrobot/../ecrobot/libecrobot.a(twi.oram)
                                                  /nxtOSEK/ecrobot/../ecrobot/libecrobot.a(nxt_avr.oram)
twi_isr_C                                         /nxtOSEK/ecrobot/../ecrobot/libecrobot.a(twi.oram)
                                                  build/config/at91sam7s-gnu/irq.oram
twi_isr_entry                                     build/config/at91sam7s-gnu/irq.oram
                                                  /nxtOSEK/ecrobot/../ecrobot/libecrobot.a(twi.oram)
twi_reset                                         /nxtOSEK/ecrobot/../ecrobot/libecrobot.a(twi.oram)
twi_start_read                                    /nxtOSEK/ecrobot/../ecrobot/libecrobot.a(twi.oram)
                                                  /nxtOSEK/ecrobot/../ecrobot/libecrobot.a(nxt_avr.oram)
twi_start_write                                   /nxtOSEK/ecrobot/../ecrobot/libecrobot.a(twi.oram)
                                                  /nxtOSEK/ecrobot/../ecrobot/libecrobot.a(nxt_avr.oram)
twi_status                                        /nxtOSEK/ecrobot/../ecrobot/libecrobot.a(twi.oram)
                                                  /nxtOSEK/ecrobot/../ecrobot/libecrobot.a(flashprog.oram)
                                                  /nxtOSEK/ecrobot/../ecrobot/libecrobot.a(nxt_avr.oram)
uart                                              /nxtOSEK/ecrobot/../ecrobot/libecrobot.a(uart.oram)
uart_CheckBreak                                   /nxtOSEK/ecrobot/../ecrobot/libecrobot.a(uart.oram)
uart_clear_break                                  /nxtOSEK/ecrobot/../ecrobot/libecrobot.a(uart.oram)
uart_close                                        /nxtOSEK/ecrobot/../ecrobot/libecrobot.a(uart.oram)
uart_get_byte                                     /nxtOSEK/ecrobot/../ecrobot/libecrobot.a(uart.oram)
uart_init                                         /nxtOSEK/ecrobot/../ecrobot/libecrobot.a(uart.oram)
uart_isr_C_0                                      /nxtOSEK/ecrobot/../ecrobot/libecrobot.a(uart.oram)
                                                  build/config/at91sam7s-gnu/irq.oram
uart_isr_C_1                                      /nxtOSEK/ecrobot/../ecrobot/libecrobot.a(uart.oram)
                                                  build/config/at91sam7s-gnu/irq.oram
uart_isr_entry_0                                  build/config/at91sam7s-gnu/irq.oram
                                                  /nxtOSEK/ecrobot/../ecrobot/libecrobot.a(uart.oram)
uart_isr_entry_1                                  build/config/at91sam7s-gnu/irq.oram
uart_put_byte                                     /nxtOSEK/ecrobot/../ecrobot/libecrobot.a(uart.oram)
uart_put_str                                      /nxtOSEK/ecrobot/../ecrobot/libecrobot.a(uart.oram)
uart_set_break                                    /nxtOSEK/ecrobot/../ecrobot/libecrobot.a(uart.oram)
uart_us0_init_irq                                 /nxtOSEK/ecrobot/../ecrobot/libecrobot.a(uart.oram)
uart_us0_interrupts_enable                        /nxtOSEK/ecrobot/../ecrobot/libecrobot.a(uart.oram)
udp_disable                                       /nxtOSEK/ecrobot/../ecrobot/libecrobot.a(udp.oram)
                                                  /nxtOSEK/ecrobot/../ecrobot/libecrobot.a(ecrobot_usb.o)
udp_enable                                        /nxtOSEK/ecrobot/../ecrobot/libecrobot.a(udp.oram)
                                                  /nxtOSEK/ecrobot/../ecrobot/libecrobot.a(ecrobot_usb.o)
udp_init                                          /nxtOSEK/ecrobot/../ecrobot/libecrobot.a(udp.oram)
                                                  /nxtOSEK/ecrobot/../ecrobot/libecrobot.a(ecrobot_usb.o)
udp_isr_C                                         /nxtOSEK/ecrobot/../ecrobot/libecrobot.a(udp.oram)
                                                  build/config/at91sam7s-gnu/irq.oram
udp_isr_entry                                     build/config/at91sam7s-gnu/irq.oram
                                                  /nxtOSEK/ecrobot/../ecrobot/libecrobot.a(udp.oram)
udp_read                                          /nxtOSEK/ecrobot/../ecrobot/libecrobot.a(udp.oram)
                                                  /nxtOSEK/ecrobot/../ecrobot/libecrobot.a(ecrobot_usb.o)
udp_reset                                         /nxtOSEK/ecrobot/../ecrobot/libecrobot.a(udp.oram)
udp_set_name                                      /nxtOSEK/ecrobot/../ecrobot/libecrobot.a(udp.oram)
                                                  /nxtOSEK/ecrobot/../ecrobot/libecrobot.a(ecrobot_usb.o)
udp_set_serialno                                  /nxtOSEK/ecrobot/../ecrobot/libecrobot.a(udp.oram)
                                                  /nxtOSEK/ecrobot/../ecrobot/libecrobot.a(ecrobot_usb.o)
udp_status                                        /nxtOSEK/ecrobot/../ecrobot/libecrobot.a(udp.oram)
                                                  /nxtOSEK/ecrobot/../ecrobot/libecrobot.a(ecrobot_usb.o)
udp_write                                         /nxtOSEK/ecrobot/../ecrobot/libecrobot.a(udp.oram)
                                                  /nxtOSEK/ecrobot/../ecrobot/libecrobot.a(ecrobot_usb.o)
undef_handler                                     build/ecrobot_init.o
                                                  build/nxtvm/platform/nxt/vectors.o
                                                  build/nxtvm/platform/nxt/vectors.o
unset_digi0                                       /nxtOSEK/ecrobot/../ecrobot/libecrobot.a(sensors.oram)
                                                  /nxtOSEK/ecrobot/../ecrobot/libecrobot.a(ecrobot_interface.o)
unset_digi1                                       /nxtOSEK/ecrobot/../ecrobot/libecrobot.a(sensors.oram)
user_1ms_isr_type2                                build/controller/initDevice.o
                                                  build/syslib/at91sam7s-gnu/lego_nxt/hw_sys_timer.oram
